gplink-0.13.6 alpha
Copyright (c) 1998-2005 gputils project
Listing File Generated: 1-15-2010  21:02:00
 
 
Address  Value    Disassembly              Source
-------  -----    -----------              ------
                                           ;--------------------------------------------------------
                                           ; File Created by SDCC : free open source ANSI-C Compiler
                                           ; Version 2.8.0 #5117 (Jun  2 2008) (UNIX)
                                           ; This file was generated Fri Jan 15 21:01:59 2010
                                           ;--------------------------------------------------------
                                           ; PIC port for the 14-bit core
                                           ;--------------------------------------------------------
                                           	.file	"aquarium.c"
                                           	list	p=16f874a
                                           	radix dec
                                           	include "p16f874a.inc"
                                                   LIST
                                           ; P16F874A.INC  Standard Header File, Version 1.00    Microchip Technology, Inc.
                                                   NOLIST
                                           ;--------------------------------------------------------
                                           ; config word 
                                           ;--------------------------------------------------------
                                           	__config 0x3f7b
                                           ;--------------------------------------------------------
                                           ; external declarations
                                           ;--------------------------------------------------------
                                           	extern	_ADCON0_bits
                                           	extern	_ADCON1_bits
                                           	extern	_CCP1CON_bits
                                           	extern	_CCP2CON_bits
                                           	extern	_CMCON_bits
                                           	extern	_CVRCON_bits
                                           	extern	_EECON1_bits
                                           	extern	_INTCON_bits
                                           	extern	_OPTION_REG_bits
                                           	extern	_PCON_bits
                                           	extern	_PIE1_bits
                                           	extern	_PIE2_bits
                                           	extern	_PIR1_bits
                                           	extern	_PIR2_bits
                                           	extern	_PORTA_bits
                                           	extern	_PORTB_bits
                                           	extern	_PORTC_bits
                                           	extern	_PORTD_bits
                                           	extern	_PORTE_bits
                                           	extern	_RCSTA_bits
                                           	extern	_SSPCON_bits
                                           	extern	_SSPCON2_bits
                                           	extern	_SSPSTAT_bits
                                           	extern	_STATUS_bits
                                           	extern	_T1CON_bits
                                           	extern	_T2CON_bits
                                           	extern	_TRISA_bits
                                           	extern	_TRISB_bits
                                           	extern	_TRISC_bits
                                           	extern	_TRISD_bits
                                           	extern	_TRISE_bits
                                           	extern	_TXSTA_bits
                                           	extern	_INDF
                                           	extern	_TMR0
                                           	extern	_PCL
                                           	extern	_STATUS
                                           	extern	_FSR
                                           	extern	_PORTA
                                           	extern	_PORTB
                                           	extern	_PORTC
                                           	extern	_PORTD
                                           	extern	_PORTE
                                           	extern	_PCLATH
                                           	extern	_INTCON
                                           	extern	_PIR1
                                           	extern	_PIR2
                                           	extern	_TMR1L
                                           	extern	_TMR1H
                                           	extern	_T1CON
                                           	extern	_TMR2
                                           	extern	_T2CON
                                           	extern	_SSPBUF
                                           	extern	_SSPCON
                                           	extern	_CCPR1L
                                           	extern	_CCPR1H
                                           	extern	_CCP1CON
                                           	extern	_RCSTA
                                           	extern	_TXREG
                                           	extern	_RCREG
                                           	extern	_CCPR2L
                                           	extern	_CCPR2H
                                           	extern	_CCP2CON
                                           	extern	_ADRESH
                                           	extern	_ADCON0
                                           	extern	_OPTION_REG
                                           	extern	_TRISA
                                           	extern	_TRISB
                                           	extern	_TRISC
                                           	extern	_TRISD
                                           	extern	_TRISE
                                           	extern	_PIE1
                                           	extern	_PIE2
                                           	extern	_PCON
                                           	extern	_SSPCON2
                                           	extern	_PR2
                                           	extern	_SSPADD
                                           	extern	_SSPSTAT
                                           	extern	_TXSTA
                                           	extern	_SPBRG
                                           	extern	_CMCON
                                           	extern	_CVRCON
                                           	extern	_ADRESL
                                           	extern	_ADCON1
                                           	extern	_EEDATA
                                           	extern	_EEADR
                                           	extern	_EEDATH
                                           	extern	_EEADRH
                                           	extern	_EECON1
                                           	extern	_EECON2
                                           	extern	___sdcc_saved_fsr
                                           	extern	__sdcc_gsinit_startup
                                           ;--------------------------------------------------------
                                           ; global declarations
                                           ;--------------------------------------------------------
                                           	global	_main
                                           	global	_setLEDBothPWM
                                           	global	_setLEDPWM
                                           	global	_setLEDBothDiscrete
                                           	global	_setLEDDiscrete
                                           	global	_on_init
                                           	global	_delayS
                                           	global	_delayMs
                                           	global	_timer1_init
                                           	global	_isr
                                           	global	_tick
                                           	global	_lasttick
                                           	global	_PWMCycle
                                           	global	_PWM
                                           
                                           	global PSAVE
                                           	global SSAVE
                                           	global WSAVE
                                           	global STK12
                                           	global STK11
                                           	global STK10
                                           	global STK09
                                           	global STK08
                                           	global STK07
                                           	global STK06
                                           	global STK05
                                           	global STK04
                                           	global STK03
                                           	global STK02
                                           	global STK01
                                           	global STK00
                                           
                                           sharebank udata_ovr 0x0020
                                           PSAVE	res 1
                                           SSAVE	res 1
                                           WSAVE	res 1
                                           STK12	res 1
                                           STK11	res 1
                                           STK10	res 1
                                           STK09	res 1
                                           STK08	res 1
                                           STK07	res 1
                                           STK06	res 1
                                           STK05	res 1
                                           STK04	res 1
                                           STK03	res 1
                                           STK02	res 1
                                           STK01	res 1
                                           STK00	res 1
                                           
                                           ;--------------------------------------------------------
                                           ; global definitions
                                           ;--------------------------------------------------------
                                           UD_aquarium_0	udata
                                           _PWMCycle	res	1
                                           
                                           UD_aquarium_1	udata
                                           _PWM	res	23
                                           
                                           ;--------------------------------------------------------
                                           ; absolute symbol definitions
                                           ;--------------------------------------------------------
                                           ;--------------------------------------------------------
                                           ; compiler-defined variables
                                           ;--------------------------------------------------------
                                           UDL_aquarium_0	udata
                                           r0x103A	res	1
                                           r0x103B	res	1
                                           r0x103C	res	1
                                           r0x103E	res	1
                                           r0x1034	res	1
                                           r0x1033	res	1
                                           r0x1032	res	1
                                           r0x1036	res	1
                                           r0x1037	res	1
                                           r0x1038	res	1
                                           r0x1039	res	1
                                           r0x102F	res	1
                                           r0x102E	res	1
                                           r0x102D	res	1
                                           r0x102C	res	1
                                           r0x1030	res	1
                                           r0x1031	res	1
                                           r0x102A	res	1
                                           r0x102B	res	1
                                           r0x1027	res	1
                                           r0x1028	res	1
                                           r0x1029	res	1
                                           r0x1024	res	1
                                           r0x1025	res	1
                                           r0x1026	res	1
                                           r0x1021	res	1
                                           r0x1022	res	1
                                           r0x1023	res	1
                                           ;--------------------------------------------------------
                                           ; initialized data
                                           ;--------------------------------------------------------
                                           
                                           ID_aquarium_0	idata
                                           _tick
                                           	db	0x00, 0x00, 0x00, 0x00
                                           
                                           
                                           ID_aquarium_1	idata
                                           _lasttick
                                           	db	0x00, 0x00, 0x00, 0x00
                                           
                                           ;--------------------------------------------------------
                                           ; overlayable items in internal ram 
                                           ;--------------------------------------------------------
                                           ;	udata_ovr
                                           ;--------------------------------------------------------
                                           ; reset vector 
                                           ;--------------------------------------------------------
                                           STARTUP	code
000000   0000     nop                      	nop
000001   118a     bcf	0xa, 0x3             	pagesel __sdcc_gsinit_startup
000002   2b90     goto	0x390               	goto	__sdcc_gsinit_startup
                                           ;--------------------------------------------------------
                                           ; interrupt and initialization code
                                           ;--------------------------------------------------------
                                           c_interrupt	code	0x4
                                           __sdcc_interrupt
                                           ;***
                                           ;  pBlock Stats: dbName = I
                                           ;***
                                           ;entry:  _isr	;Function start
                                           ; 0 exit points
                                           ;functions called:
                                           ;   _setLEDDiscrete
                                           ;   _setLEDDiscrete
                                           ;   _setLEDDiscrete
                                           ;   _setLEDDiscrete
                                           ;6 compiler assigned registers:
                                           ;   r0x103A
                                           ;   r0x103B
                                           ;   r0x103C
                                           ;   r0x103D
                                           ;   r0x103E
                                           ;   STK00
                                           ;; Starting pCode block
                                           ;; gen.c:2327:resultRemat *{*
                                           ;; gen.c:2686:genLabel *{*
                                           ;; ***	genLabel  2689
                                           ;; gen.c:2327:resultRemat *{*
                                           ;; gen.c:2372:genFunction *{*
                                           ;; ***	genFunction  2374 curr label offset=0previous max_key=0 
                                           _isr	;Function start
                                           ; 0 exit points
                                           ; >>> gen.c:2429:genFunction
                                           	.line	14; "aquarium.c"	void isr() interrupt 0 
000004   00a2     movwf	0x22               	MOVWF	WSAVE
                                           ; >>> gen.c:2430:genFunction
000005   0e03     swapf	0x3, w             	SWAPF	STATUS,W
                                           ; >>> gen.c:2435:genFunction
000006   0183     clrf	0x3                 	CLRF	STATUS
                                           ; >>> gen.c:2436:genFunction
000007   1283     bcf	0x3, 0x5             	BANKSEL	SSAVE
000008   1303     bcf	0x3, 0x6             
000009   00a1     movwf	0x21               	MOVWF	SSAVE
                                           ; >>> gen.c:2438:genFunction
00000a   080a     movf	0xa, w              	MOVF	PCLATH,W
                                           ; >>> gen.c:2440:genFunction
00000b   018a     clrf	0xa                 	CLRF	PCLATH
                                           ; >>> gen.c:2441:genFunction
00000c   00a0     movwf	0x20               	MOVWF	PSAVE
                                           ; >>> gen.c:2443:genFunction
00000d   0804     movf	0x4, w              	MOVF	FSR,W
                                           ; >>> gen.c:2444:genFunction
00000e   1283     bcf	0x3, 0x5             	BANKSEL	___sdcc_saved_fsr
00000f   1303     bcf	0x3, 0x6             
000010   00f8     movwf	0x78               	MOVWF	___sdcc_saved_fsr
                                           ;; gen.c:2327:resultRemat *{*
                                           ;; gen.c:4410:ifxForOp *{*
                                           ;; ***	ifxForOp  4412
                                           ;; gen.c:4625:genAnd *{*
                                           ;; ***	genAnd  4626
                                           ;; ***	aopForSym 393
                                           ;;	404 sym->rname = _PIR1, size = 1
                                           ;; 	line = 4660 result AOP_CRY=0x00, size=0, left AOP_DIR=_PIR1, size=1, right AOP_LIT=0x01, size=1
                                           ;; gen.c:4552:isLiteralBit *{*
                                           ;; ***	isLiteralBit  4553
                                           ; >>> gen.c:4729:genAnd
                                           	.line	17; "aquarium.c"	if(PIR1&0x01)
000011   1283     bcf	0x3, 0x5             	BANKSEL	_PIR1
000012   1303     bcf	0x3, 0x6             
000013   1c0c     btfss	0xc, 0             	BTFSS	_PIR1,0
                                           ; >>> gen.c:4730:genAnd
                                           ;; ***	popGetLabel  key=12, label offset 4
000014   2867     goto	0x67                	GOTO	_00116_DS_
                                           ;; gen.c:2327:resultRemat *{*
                                           ;; gen.c:2327:resultRemat *{*
                                           ;; ***	genPlus  718
                                           ;; genarith.c:719:genPlus *{*
                                           ;; ***	aopForSym 393
                                           ;;	404 sym->rname = _tick, size = 4
                                           ;; 	line = 725 result AOP_DIR=_tick, size=4, left AOP_DIR=_tick, size=4, right AOP_LIT=0x01, size=1
                                           ;; ***	pic14_getDataSize  1492
                                           ;; genarith.c:181:genPlusIncr *{*
                                           ;; ***	genPlusIncr  183
                                           ;; 	result AOP_DIR, left AOP_DIR, right AOP_LIT
                                           ;; 	genPlusIncr  195
                                           ; >>> genarith.c:207:genPlusIncr
                                           ;;	1036
                                           ;;	1052  _tick   offset=0
                                           	.line	19; "aquarium.c"	tick++;
000015   1283     bcf	0x3, 0x5             	BANKSEL	_tick
000016   1303     bcf	0x3, 0x6             
000017   0aef     incf	0x6f, f             	INCF	_tick,F
                                           ; >>> genarith.c:211:genPlusIncr
000018   1903     btfsc	0x3, 0x2           	BTFSC	STATUS,2
                                           ; >>> genarith.c:212:genPlusIncr
                                           ;;	1036
                                           ;;	1052  _tick   offset=1
000019   0af0     incf	0x70, f             	INCF	(_tick + 1),F
                                           ; >>> genarith.c:211:genPlusIncr
00001a   1903     btfsc	0x3, 0x2           	BTFSC	STATUS,2
                                           ; >>> genarith.c:212:genPlusIncr
                                           ;;	1036
                                           ;;	1052  _tick   offset=2
00001b   0af1     incf	0x71, f             	INCF	(_tick + 2),F
                                           ; >>> genarith.c:211:genPlusIncr
00001c   1903     btfsc	0x3, 0x2           	BTFSC	STATUS,2
                                           ; >>> genarith.c:212:genPlusIncr
                                           ;;	1036
                                           ;;	1052  _tick   offset=3
00001d   0af2     incf	0x72, f             	INCF	(_tick + 3),F
                                           ;; gen.c:2327:resultRemat *{*
                                           ;; gen.c:8139:genAssign *{*
                                           ;; ***	genAssign  8140
                                           ;; ***	aopForSym 393
                                           ;;	404 sym->rname = _TMR1H, size = 1
                                           ;; 	line = 8149 result AOP_DIR=_TMR1H, size=1, left -=-, size=0, right AOP_LIT=0xfc, size=1
                                           ;; ***	genAssign  8241
                                           ; >>> gen.c:8246:genAssign
                                           	.line	20; "aquarium.c"	TMR1H=TMR1H_PRESET;
00001e   30fc     movlw	0xfc               	MOVLW	0xfc
                                           ; >>> gen.c:8248:genAssign
                                           ;;	1036
                                           ;;	1052  _TMR1H   offset=0
00001f   1283     bcf	0x3, 0x5             	BANKSEL	_TMR1H
000020   1303     bcf	0x3, 0x6             
000021   008f     movwf	0xf                	MOVWF	_TMR1H
                                           ;; gen.c:2327:resultRemat *{*
                                           ;; gen.c:8139:genAssign *{*
                                           ;; ***	genAssign  8140
                                           ;; ***	aopForSym 393
                                           ;;	404 sym->rname = _TMR1L, size = 1
                                           ;; 	line = 8149 result AOP_DIR=_TMR1L, size=1, left -=-, size=0, right AOP_LIT=0x17, size=1
                                           ;; ***	genAssign  8241
                                           ; >>> gen.c:8246:genAssign
                                           	.line	21; "aquarium.c"	TMR1L=TMR1L_PRESET;
000022   3017     movlw	0x17               	MOVLW	0x17
                                           ; >>> gen.c:8248:genAssign
                                           ;;	1036
                                           ;;	1052  _TMR1L   offset=0
000023   008e     movwf	0xe                	MOVWF	_TMR1L
                                           ;; gen.c:2327:resultRemat *{*
                                           ;; gen.c:4410:ifxForOp *{*
                                           ;; ***	ifxForOp  4412
                                           ;; gen.c:4625:genAnd *{*
                                           ;; ***	genAnd  4626
                                           ;; ***	aopForSym 393
                                           ;;	404 sym->rname = _PIR1, size = 1
                                           ;;	654
                                           ;; 	line = 4660 result AOP_DIR=_PIR1, size=1, left AOP_DIR=_PIR1, size=1, right AOP_LIT=0xfe, size=1
                                           ; >>> gen.c:4804:genAnd
                                           	.line	22; "aquarium.c"	PIR1&=0xFE;  //clear timer1 interrupt flag
000024   100c     bcf	0xc, 0               	BCF	_PIR1,0
                                           ;; gen.c:2327:resultRemat *{*
                                           ;; ***	genPlus  718
                                           ;; genarith.c:719:genPlus *{*
                                           ;; ***	aopForSym 393
                                           ;;	404 sym->rname = _PWMCycle, size = 1
                                           ;; 	line = 725 result AOP_DIR=_PWMCycle, size=1, left AOP_DIR=_PWMCycle, size=1, right AOP_LIT=0x01, size=1
                                           ;; ***	pic14_getDataSize  1492
                                           ;; genarith.c:181:genPlusIncr *{*
                                           ;; ***	genPlusIncr  183
                                           ;; 	result AOP_DIR, left AOP_DIR, right AOP_LIT
                                           ;; 	genPlusIncr  195
                                           ; >>> genarith.c:207:genPlusIncr
                                           ;;	1036
                                           ;;	1052  _PWMCycle   offset=0
                                           	.line	24; "aquarium.c"	PWMCycle++;
000025   1283     bcf	0x3, 0x5             	BANKSEL	_PWMCycle
000026   1303     bcf	0x3, 0x6             
000027   0af7     incf	0x77, f             	INCF	_PWMCycle,F
                                           ;; gen.c:2327:resultRemat *{*
                                           ;; gen.c:4410:ifxForOp *{*
                                           ;; ***	ifxForOp  4412
                                           ;; gen.c:4263:genCmpLt *{*
                                           ;; ***	genCmpLt  4264
                                           ;; ***	aopForSym 393
                                           ;;	404 sym->rname = _PWMCycle, size = 1
                                           ;; gen.c:3365:genCmp *{*
                                           ;signed compare: left < lit(0x20=32), size=1, mask=ff
                                           ;; ***	mov2w  1422  offset=0
                                           ; >>> gen.c:1427:mov2w
                                           ;;	1036
                                           ;;	1052  _PWMCycle   offset=0
                                           	.line	25; "aquarium.c"	if (PWMCycle >= PWM_LENGTH) 
000028   0877     movf	0x77, w             	MOVF	_PWMCycle,W
                                           ; >>> gen.c:3489:genCmp
000029   3e80     addlw	0x80               	ADDLW	0x80
                                           ; >>> gen.c:3490:genCmp
                                           	.line	26; "aquarium.c"	PWMCycle = 0;
00002a   3e60     addlw	0x60               	ADDLW	0x60
                                           	.line	28; "aquarium.c"	for(i=0;i<=22;i++)
00002b   1803     btfsc	0x3, 0             	BTFSC	STATUS,0
00002c   01f7     clrf	0x77                	CLRF	_PWMCycle
00002d   1283     bcf	0x3, 0x5             	BANKSEL	r0x103A
00002e   1303     bcf	0x3, 0x6             
00002f   01b0     clrf	0x30                	CLRF	r0x103A
                                           _00112_DS_
000030   3017     movlw	0x17               	MOVLW	0x17
                                           ; >>> gen.c:3473:genCmp
                                           ;;	1150 rIdx = r0x104A 
000031   1283     bcf	0x3, 0x5             	BANKSEL	r0x103A
000032   1303     bcf	0x3, 0x6             
000033   0230     subwf	0x30, w            	SUBWF	r0x103A,W
                                           ;; gen.c:3215:genSkipc *{*
                                           ; >>> gen.c:3220:genSkipc
000034   1803     btfsc	0x3, 0             	BTFSC	STATUS,0
                                           ; >>> gen.c:3224:genSkipc
                                           ;; ***	popGetLabel  key=12, label offset 4
000035   2867     goto	0x67                	GOTO	_00116_DS_
                                           ;genSkipc:3225: created from rifx:0xbfff5a80
                                           ;; gen.c:2327:resultRemat *{*
                                           ;; gen.c:2327:resultRemat *{*
                                           ;; ***	genPlus  718
                                           ;; genarith.c:719:genPlus *{*
                                           ;;	689
                                           ;;	aopForRemat 474
                                           ;;	495: rname _PWM, val 0, const = 0
                                           ;;	769 register type nRegs=1
                                           ;;	769 register type nRegs=2
                                           ;;	879: aopGet AOP_PCODE type PO_IMMEDIATE
                                           ;;	_PWM
                                           ;; 	line = 725 result AOP_REG=r0x104B, size=2, left AOP_PCODE=_PWM, size=2, right AOP_REG=r0x104A, size=1
                                           ;; ***	pic14_getDataSize  1492
                                           ;; genarith.c:181:genPlusIncr *{*
                                           ;; ***	genPlusIncr  183
                                           ;; 	result AOP_REG, left AOP_PCODE, right AOP_REG
                                           ;; ***	pic14_getDataSize  1492
                                           ;; ***	genPlus  829
                                           ;;	879: aopGet AOP_PCODE type PO_IMMEDIATE
                                           ;;	_PWM
                                           ; >>> genarith.c:838:genPlus
                                           ;;	1150 rIdx = r0x104A 
                                           	.line	30; "aquarium.c"	if(PWMCycle > PWM[i])
000036   0830     movf	0x30, w             	MOVF	r0x103A,W
                                           ; >>> genarith.c:847:genPlus
000037   3e4c     addlw	0x4c               	ADDLW	(_PWM + 0)
                                           ; >>> genarith.c:848:genPlus
                                           ;;	1150 rIdx = r0x104B 
000038   00b1     movwf	0x31               	MOVWF	r0x103B
                                           ; >>> genarith.c:911:genPlus
000039   3000     movlw	0                  	MOVLW	high (_PWM + 0)
                                           ; >>> genarith.c:912:genPlus
00003a   1803     btfsc	0x3, 0             	BTFSC	STATUS,0
                                           ; >>> genarith.c:913:genPlus
00003b   3e01     addlw	0x1                	ADDLW	0x01
                                           ; >>> genarith.c:914:genPlus
                                           ;;	1150 rIdx = r0x104C 
00003c   00b2     movwf	0x32               	MOVWF	r0x103C
                                           ;; gen.c:2327:resultRemat *{*
                                           ;; gen.c:7386:genPointerGet *{*
                                           ;; ***	genPointerGet  7387
                                           ;; gen.c:7175:genNearPointerGet *{*
                                           ;; ***	genNearPointerGet  7176
                                           ;;	769 register type nRegs=2
                                           ;; ***	genNearPointerGet  7192
                                           ;;	769 register type nRegs=1
                                           ;; gen.c:1390:mov2w_op *{*
                                           ;; ***	mov2w  1422  offset=0
                                           ; >>> gen.c:1427:mov2w
                                           ;;	1150 rIdx = r0x104B 
00003d   0831     movf	0x31, w             	MOVF	r0x103B,W
                                           ; >>> gen.c:6924:setup_fsr
00003e   0084     movwf	0x4                	MOVWF	FSR
                                           ;; gen.c:6894:SetIrp *{*
                                           ; >>> gen.c:6911:SetIrp
00003f   1383     bcf	0x3, 0x7             	BCF	STATUS,7
                                           ; >>> gen.c:6913:SetIrp
000040   1832     btfsc	0x32, 0            	BTFSC	r0x103C,0
                                           ; >>> gen.c:6914:SetIrp
000041   1783     bsf	0x3, 0x7             	BSF	STATUS,7
                                           ;; ***	genNearPointerGet  7221
                                           ; >>> gen.c:7227:genNearPointerGet
000042   0800     movf	0, w                	MOVF	INDF,W
                                           ; >>> gen.c:7231:genNearPointerGet
                                           ;;	1150 rIdx = r0x104D 
                                           ;;1	MOVWF	r0x103D
000043   3e80     addlw	0x80               	ADDLW	0x80
                                           ; >>> gen.c:3496:genCmp
000044   00b3     movwf	0x33               	MOVWF	r0x103E
                                           ;; ***	mov2w  1422  offset=0
                                           ; >>> gen.c:1427:mov2w
                                           ;;	1036
                                           ;;	1052  _PWMCycle   offset=0
000045   1283     bcf	0x3, 0x5             	BANKSEL	_PWMCycle
000046   1303     bcf	0x3, 0x6             
000047   0877     movf	0x77, w             	MOVF	_PWMCycle,W
                                           ; >>> gen.c:3498:genCmp
000048   3e80     addlw	0x80               	ADDLW	0x80
                                           ; >>> gen.c:3499:genCmp
000049   1283     bcf	0x3, 0x5             	BANKSEL	r0x103E
00004a   1303     bcf	0x3, 0x6             
00004b   0233     subwf	0x33, w            	SUBWF	r0x103E,W
                                           ;; gen.c:3215:genSkipc *{*
                                           ; >>> gen.c:3220:genSkipc
00004c   1803     btfsc	0x3, 0             	BTFSC	STATUS,0
                                           ; >>> gen.c:3224:genSkipc
                                           ;; ***	popGetLabel  key=4, label offset 4
00004d   2859     goto	0x59                	GOTO	_00108_DS_
                                           ;genSkipc:3225: created from rifx:0xbfff5a80
                                           ;; gen.c:2327:resultRemat *{*
                                           ;; gen.c:2327:resultRemat *{*
                                           ;; gen.c:2327:resultRemat *{*
                                           ;; gen.c:2327:resultRemat *{*
                                           ;; gen.c:2096:genCall *{*
                                           ;; ***	genCall  2098
                                           ;; gen.c:1781:saveRegisters *{*
                                           ;; ***	saveRegisters  1783
                                           ;;	769 register type nRegs=1
                                           ;; 	2145 left AOP_LIT
                                           ;; gen.c:1390:mov2w_op *{*
                                           ; >>> gen.c:1405:mov2w_op
                                           	.line	31; "aquarium.c"	setLEDDiscrete(i, 0);
00004e   3000     movlw	0                  	MOVLW	0x00
                                           ;;	769 register type nRegs=1
                                           ;; 	2145 left AOP_REG
                                           ; >>> gen.c:2153:genCall
                                           ;; ***	popRegFromIdx,1066  , rIdx=0x2f
00004f   1283     bcf	0x3, 0x5             	BANKSEL	STK00
000050   1303     bcf	0x3, 0x6             
000051   00af     movwf	0x2f               	MOVWF	STK00
                                           ;; gen.c:1390:mov2w_op *{*
                                           ;; ***	mov2w  1422  offset=0
                                           ; >>> gen.c:1427:mov2w
                                           ;;	1150 rIdx = r0x104A 
000052   1283     bcf	0x3, 0x5             	BANKSEL	r0x103A
000053   1303     bcf	0x3, 0x6             
000054   0830     movf	0x30, w             	MOVF	r0x103A,W
                                           ; >>> gen.c:2182:genCall
000055   118a     bcf	0xa, 0x3             	PAGESEL	_setLEDDiscrete
                                           ; >>> gen.c:2184:genCall
000056   2114     call	0x114               	CALL	_setLEDDiscrete
                                           ; >>> gen.c:2189:genCall
000057   118a     bcf	0xa, 0x3             	PAGESEL	$
                                           ;; gen.c:1825:unsaveRegisters *{*
                                           ;; ***	unsaveRegisters  1827
                                           ;; gen.c:2327:resultRemat *{*
                                           ;; gen.c:2703:genGoto *{*
                                           ; >>> gen.c:2705:genGoto
                                           ;; ***	popGetLabel  key=10, label offset 4
000058   2863     goto	0x63                	GOTO	_00114_DS_
                                           ;; gen.c:2327:resultRemat *{*
                                           ;; gen.c:2686:genLabel *{*
                                           ;; ***	genLabel  2689
                                           ;; gen.c:2327:resultRemat *{*
                                           ;; gen.c:2327:resultRemat *{*
                                           ;; gen.c:2327:resultRemat *{*
                                           ;; gen.c:2096:genCall *{*
                                           ;; ***	genCall  2098
                                           ;; gen.c:1781:saveRegisters *{*
                                           ;; ***	saveRegisters  1783
                                           ;;	769 register type nRegs=1
                                           ;; 	2145 left AOP_LIT
                                           ;; gen.c:1390:mov2w_op *{*
                                           ; >>> gen.c:1405:mov2w_op
                                           _00108_DS_
                                           	.line	33; "aquarium.c"	setLEDDiscrete(i, 1);
000059   3001     movlw	0x1                	MOVLW	0x01
                                           ;;	769 register type nRegs=1
                                           ;; 	2145 left AOP_REG
                                           ; >>> gen.c:2153:genCall
                                           ;; ***	popRegFromIdx,1066  , rIdx=0x2f
00005a   1283     bcf	0x3, 0x5             	BANKSEL	STK00
00005b   1303     bcf	0x3, 0x6             
00005c   00af     movwf	0x2f               	MOVWF	STK00
                                           ;; gen.c:1390:mov2w_op *{*
                                           ;; ***	mov2w  1422  offset=0
                                           ; >>> gen.c:1427:mov2w
                                           ;;	1150 rIdx = r0x104A 
00005d   1283     bcf	0x3, 0x5             	BANKSEL	r0x103A
00005e   1303     bcf	0x3, 0x6             
00005f   0830     movf	0x30, w             	MOVF	r0x103A,W
                                           ; >>> gen.c:2182:genCall
000060   118a     bcf	0xa, 0x3             	PAGESEL	_setLEDDiscrete
                                           ; >>> gen.c:2184:genCall
000061   2114     call	0x114               	CALL	_setLEDDiscrete
                                           ; >>> gen.c:2189:genCall
000062   118a     bcf	0xa, 0x3             	PAGESEL	$
                                           ;; gen.c:1825:unsaveRegisters *{*
                                           ;; ***	unsaveRegisters  1827
                                           ;; gen.c:2327:resultRemat *{*
                                           ;; gen.c:2686:genLabel *{*
                                           ;; ***	genLabel  2689
                                           ;; gen.c:2327:resultRemat *{*
                                           ;; ***	genPlus  718
                                           ;; genarith.c:719:genPlus *{*
                                           ;;	769 register type nRegs=1
                                           ;;	654
                                           ;; 	line = 725 result AOP_REG=r0x104A, size=1, left AOP_REG=r0x104A, size=1, right AOP_LIT=0x01, size=1
                                           ;; ***	pic14_getDataSize  1492
                                           ;; genarith.c:181:genPlusIncr *{*
                                           ;; ***	genPlusIncr  183
                                           ;; 	result AOP_REG, left AOP_REG, right AOP_LIT
                                           ;; 	genPlusIncr  195
                                           ; >>> genarith.c:207:genPlusIncr
                                           ;;	1150 rIdx = r0x104A 
                                           _00114_DS_
                                           	.line	28; "aquarium.c"	for(i=0;i<=22;i++)
000063   1283     bcf	0x3, 0x5             	BANKSEL	r0x103A
000064   1303     bcf	0x3, 0x6             
000065   0ab0     incf	0x30, f             	INCF	r0x103A,F
                                           ;; gen.c:2327:resultRemat *{*
                                           ;; gen.c:2703:genGoto *{*
                                           ; >>> gen.c:2705:genGoto
                                           ;; ***	popGetLabel  key=8, label offset 4
000066   2830     goto	0x30                	GOTO	_00112_DS_
                                           ;; gen.c:2327:resultRemat *{*
                                           ;; gen.c:2686:genLabel *{*
                                           ;; ***	genLabel  2689
                                           ;; gen.c:2327:resultRemat *{*
                                           ;; gen.c:2524:genEndFunction *{*
                                           ;; ***	genEndFunction  2526
                                           ;; gen.c:1991:unsaverbank *{*
                                           ;; ***	unsaverbank  1993 - WARNING no code generated
                                           ; >>> gen.c:2597:genEndFunction
                                           _00116_DS_
000067   1283     bcf	0x3, 0x5             	BANKSEL	___sdcc_saved_fsr
000068   1303     bcf	0x3, 0x6             
000069   0878     movf	0x78, w             	MOVF	___sdcc_saved_fsr,W
                                           ; >>> gen.c:2598:genEndFunction
00006a   0084     movwf	0x4                	MOVWF	FSR
                                           ; >>> gen.c:2600:genEndFunction
00006b   1283     bcf	0x3, 0x5             	BANKSEL	PSAVE
00006c   1303     bcf	0x3, 0x6             
00006d   0820     movf	0x20, w             	MOVF	PSAVE,W
                                           ; >>> gen.c:2601:genEndFunction
00006e   008a     movwf	0xa                	MOVWF	PCLATH
                                           ; >>> gen.c:2602:genEndFunction
00006f   0183     clrf	0x3                 	CLRF	STATUS
                                           ; >>> gen.c:2604:genEndFunction
000070   0e21     swapf	0x21, w            	SWAPF	SSAVE,W
                                           ; >>> gen.c:2605:genEndFunction
000071   0083     movwf	0x3                	MOVWF	STATUS
                                           ; >>> gen.c:2606:genEndFunction
000072   0ea2     swapf	0x22, f            	SWAPF	WSAVE,F
                                           ; >>> gen.c:2607:genEndFunction
000073   0e22     swapf	0x22, w            	SWAPF	WSAVE,W
                                           END_OF_INTERRUPT
000074   0009     retfie                   	RETFIE	
                                           ;; gen.c:8749:genpic14Code *{*
                                           
                                           ;--------------------------------------------------------
                                           ; code
                                           ;--------------------------------------------------------
                                           code_aquarium	code
                                           ;***
                                           ;  pBlock Stats: dbName = M
                                           ;***
                                           ;entry:  _main	;Function start
                                           ; 2 exit points
                                           ;has an exit
                                           ;functions called:
                                           ;   _on_init
                                           ;   _timer1_init
                                           ;   _on_init
                                           ;   _timer1_init
                                           ;; Starting pCode block
                                           ;; gen.c:2327:resultRemat *{*
                                           ;; gen.c:2686:genLabel *{*
                                           ;; ***	genLabel  2689
                                           ;; gen.c:2327:resultRemat *{*
                                           ;; gen.c:2372:genFunction *{*
                                           ;; ***	genFunction  2374 curr label offset=100previous max_key=5 
                                           _main	;Function start
                                           ; 2 exit points
                                           ;; gen.c:2327:resultRemat *{*
                                           ;; gen.c:2096:genCall *{*
                                           ;; ***	genCall  2098
                                           ;; gen.c:1781:saveRegisters *{*
                                           ;; ***	saveRegisters  1783
                                           ; >>> gen.c:2184:genCall
                                           	.line	207; "aquarium.c"	on_init();
000075   22b7     call	0x2b7               	CALL	_on_init
                                           ;; gen.c:1825:unsaveRegisters *{*
                                           ;; ***	unsaveRegisters  1827
                                           ;; gen.c:2327:resultRemat *{*
                                           ;; gen.c:2096:genCall *{*
                                           ;; ***	genCall  2098
                                           ;; gen.c:1781:saveRegisters *{*
                                           ;; ***	saveRegisters  1783
                                           ; >>> gen.c:2184:genCall
                                           	.line	208; "aquarium.c"	timer1_init();
000076   2383     call	0x383               	CALL	_timer1_init
                                           ;; gen.c:1825:unsaveRegisters *{*
                                           ;; ***	unsaveRegisters  1827
                                           ;; gen.c:2327:resultRemat *{*
                                           ;; gen.c:2686:genLabel *{*
                                           ;; ***	genLabel  2689
                                           ;; gen.c:2327:resultRemat *{*
                                           ;; gen.c:2327:resultRemat *{*
                                           ;; gen.c:7895:genPointerSet *{*
                                           ;; ***	genPointerSet  7896
                                           ;; gen.c:7723:genNearPointerSet *{*
                                           ;; ***	genNearPointerSet  7724
                                           ;;	689
                                           ;;	aopForRemat 474
                                           ;;	495: rname _PORTE_bits, val 0, const = 0
                                           ;; ***	genNearPointerSet  7741
                                           ;;	879: aopGet AOP_PCODE type PO_IMMEDIATE
                                           ;;	_PORTE_bits
                                           ;; 	line = 7743 result AOP_PCODE=_PORTE_bits, size=2, left -=-, size=0, right AOP_LIT=0x00, size=1
                                           ;; gen.c:7472:genPackBits *{*
                                           ;; ***	genPackBits  7473
                                           ;;	879: aopGet AOP_PCODE type PO_IMMEDIATE
                                           ;;	_PORTE_bits
                                           ; >>> gen.c:7498:genPackBits
                                           _00211_DS_
                                           	.line	212; "aquarium.c"	LED0 = 0;
000077   1283     bcf	0x3, 0x5             	BANKSEL	_PORTE_bits
000078   1303     bcf	0x3, 0x6             
000079   1009     bcf	0x9, 0               	BCF	_PORTE_bits,0
                                           ;; gen.c:2327:resultRemat *{*
                                           ;; gen.c:2327:resultRemat *{*
                                           ;; gen.c:7895:genPointerSet *{*
                                           ;; ***	genPointerSet  7896
                                           ;; gen.c:7723:genNearPointerSet *{*
                                           ;; ***	genNearPointerSet  7724
                                           ;;	689
                                           ;;	aopForRemat 474
                                           ;;	495: rname _PORTC_bits, val 0, const = 0
                                           ;; ***	genNearPointerSet  7741
                                           ;;	879: aopGet AOP_PCODE type PO_IMMEDIATE
                                           ;;	_PORTC_bits
                                           ;; 	line = 7743 result AOP_PCODE=_PORTC_bits, size=2, left -=-, size=0, right AOP_LIT=0x00, size=1
                                           ;; gen.c:7472:genPackBits *{*
                                           ;; ***	genPackBits  7473
                                           ;;	879: aopGet AOP_PCODE type PO_IMMEDIATE
                                           ;;	_PORTC_bits
                                           ; >>> gen.c:7498:genPackBits
                                           	.line	213; "aquarium.c"	LED1 = 0;
00007a   1007     bcf	0x7, 0               	BCF	_PORTC_bits,0
                                           ;; gen.c:2327:resultRemat *{*
                                           ;; gen.c:2327:resultRemat *{*
                                           ;; gen.c:7895:genPointerSet *{*
                                           ;; ***	genPointerSet  7896
                                           ;; gen.c:7723:genNearPointerSet *{*
                                           ;; ***	genNearPointerSet  7724
                                           ;;	689
                                           ;;	aopForRemat 474
                                           ;;	495: rname _PORTC_bits, val 0, const = 0
                                           ;; ***	genNearPointerSet  7741
                                           ;;	879: aopGet AOP_PCODE type PO_IMMEDIATE
                                           ;;	_PORTC_bits
                                           ;; 	line = 7743 result AOP_PCODE=_PORTC_bits, size=2, left -=-, size=0, right AOP_LIT=0x00, size=1
                                           ;; gen.c:7472:genPackBits *{*
                                           ;; ***	genPackBits  7473
                                           ;;	879: aopGet AOP_PCODE type PO_IMMEDIATE
                                           ;;	_PORTC_bits
                                           ; >>> gen.c:7498:genPackBits
                                           	.line	214; "aquarium.c"	LED2 = 0;
00007b   1087     bcf	0x7, 0x1             	BCF	_PORTC_bits,1
                                           ;; gen.c:2327:resultRemat *{*
                                           ;; gen.c:2327:resultRemat *{*
                                           ;; gen.c:7895:genPointerSet *{*
                                           ;; ***	genPointerSet  7896
                                           ;; gen.c:7723:genNearPointerSet *{*
                                           ;; ***	genNearPointerSet  7724
                                           ;;	689
                                           ;;	aopForRemat 474
                                           ;;	495: rname _PORTC_bits, val 0, const = 0
                                           ;; ***	genNearPointerSet  7741
                                           ;;	879: aopGet AOP_PCODE type PO_IMMEDIATE
                                           ;;	_PORTC_bits
                                           ;; 	line = 7743 result AOP_PCODE=_PORTC_bits, size=2, left -=-, size=0, right AOP_LIT=0x00, size=1
                                           ;; gen.c:7472:genPackBits *{*
                                           ;; ***	genPackBits  7473
                                           ;;	879: aopGet AOP_PCODE type PO_IMMEDIATE
                                           ;;	_PORTC_bits
                                           ; >>> gen.c:7498:genPackBits
                                           	.line	215; "aquarium.c"	LED3 = 0;
00007c   1107     bcf	0x7, 0x2             	BCF	_PORTC_bits,2
                                           ;; gen.c:2327:resultRemat *{*
                                           ;; gen.c:2327:resultRemat *{*
                                           ;; gen.c:7895:genPointerSet *{*
                                           ;; ***	genPointerSet  7896
                                           ;; gen.c:7723:genNearPointerSet *{*
                                           ;; ***	genNearPointerSet  7724
                                           ;;	689
                                           ;;	aopForRemat 474
                                           ;;	495: rname _PORTC_bits, val 0, const = 0
                                           ;; ***	genNearPointerSet  7741
                                           ;;	879: aopGet AOP_PCODE type PO_IMMEDIATE
                                           ;;	_PORTC_bits
                                           ;; 	line = 7743 result AOP_PCODE=_PORTC_bits, size=2, left -=-, size=0, right AOP_LIT=0x00, size=1
                                           ;; gen.c:7472:genPackBits *{*
                                           ;; ***	genPackBits  7473
                                           ;;	879: aopGet AOP_PCODE type PO_IMMEDIATE
                                           ;;	_PORTC_bits
                                           ; >>> gen.c:7498:genPackBits
                                           	.line	216; "aquarium.c"	LED4 = 0;
00007d   1187     bcf	0x7, 0x3             	BCF	_PORTC_bits,3
                                           ;; gen.c:2327:resultRemat *{*
                                           ;; gen.c:2327:resultRemat *{*
                                           ;; gen.c:7895:genPointerSet *{*
                                           ;; ***	genPointerSet  7896
                                           ;; gen.c:7723:genNearPointerSet *{*
                                           ;; ***	genNearPointerSet  7724
                                           ;;	689
                                           ;;	aopForRemat 474
                                           ;;	495: rname _PORTC_bits, val 0, const = 0
                                           ;; ***	genNearPointerSet  7741
                                           ;;	879: aopGet AOP_PCODE type PO_IMMEDIATE
                                           ;;	_PORTC_bits
                                           ;; 	line = 7743 result AOP_PCODE=_PORTC_bits, size=2, left -=-, size=0, right AOP_LIT=0x00, size=1
                                           ;; gen.c:7472:genPackBits *{*
                                           ;; ***	genPackBits  7473
                                           ;;	879: aopGet AOP_PCODE type PO_IMMEDIATE
                                           ;;	_PORTC_bits
                                           ; >>> gen.c:7498:genPackBits
                                           	.line	217; "aquarium.c"	LED5 = 0;
00007e   1207     bcf	0x7, 0x4             	BCF	_PORTC_bits,4
                                           ;; gen.c:2327:resultRemat *{*
                                           ;; gen.c:2327:resultRemat *{*
                                           ;; gen.c:7895:genPointerSet *{*
                                           ;; ***	genPointerSet  7896
                                           ;; gen.c:7723:genNearPointerSet *{*
                                           ;; ***	genNearPointerSet  7724
                                           ;;	689
                                           ;;	aopForRemat 474
                                           ;;	495: rname _PORTC_bits, val 0, const = 0
                                           ;; ***	genNearPointerSet  7741
                                           ;;	879: aopGet AOP_PCODE type PO_IMMEDIATE
                                           ;;	_PORTC_bits
                                           ;; 	line = 7743 result AOP_PCODE=_PORTC_bits, size=2, left -=-, size=0, right AOP_LIT=0x00, size=1
                                           ;; gen.c:7472:genPackBits *{*
                                           ;; ***	genPackBits  7473
                                           ;;	879: aopGet AOP_PCODE type PO_IMMEDIATE
                                           ;;	_PORTC_bits
                                           ; >>> gen.c:7498:genPackBits
                                           	.line	218; "aquarium.c"	LED6 = 0;
00007f   1287     bcf	0x7, 0x5             	BCF	_PORTC_bits,5
                                           ;; gen.c:2327:resultRemat *{*
                                           ;; gen.c:2327:resultRemat *{*
                                           ;; gen.c:7895:genPointerSet *{*
                                           ;; ***	genPointerSet  7896
                                           ;; gen.c:7723:genNearPointerSet *{*
                                           ;; ***	genNearPointerSet  7724
                                           ;;	689
                                           ;;	aopForRemat 474
                                           ;;	495: rname _PORTC_bits, val 0, const = 0
                                           ;; ***	genNearPointerSet  7741
                                           ;;	879: aopGet AOP_PCODE type PO_IMMEDIATE
                                           ;;	_PORTC_bits
                                           ;; 	line = 7743 result AOP_PCODE=_PORTC_bits, size=2, left -=-, size=0, right AOP_LIT=0x00, size=1
                                           ;; gen.c:7472:genPackBits *{*
                                           ;; ***	genPackBits  7473
                                           ;;	879: aopGet AOP_PCODE type PO_IMMEDIATE
                                           ;;	_PORTC_bits
                                           ; >>> gen.c:7498:genPackBits
                                           	.line	219; "aquarium.c"	LED7 = 0;
000080   1307     bcf	0x7, 0x6             	BCF	_PORTC_bits,6
                                           ;; gen.c:2327:resultRemat *{*
                                           ;; gen.c:2327:resultRemat *{*
                                           ;; gen.c:7895:genPointerSet *{*
                                           ;; ***	genPointerSet  7896
                                           ;; gen.c:7723:genNearPointerSet *{*
                                           ;; ***	genNearPointerSet  7724
                                           ;;	689
                                           ;;	aopForRemat 474
                                           ;;	495: rname _PORTC_bits, val 0, const = 0
                                           ;; ***	genNearPointerSet  7741
                                           ;;	879: aopGet AOP_PCODE type PO_IMMEDIATE
                                           ;;	_PORTC_bits
                                           ;; 	line = 7743 result AOP_PCODE=_PORTC_bits, size=2, left -=-, size=0, right AOP_LIT=0x00, size=1
                                           ;; gen.c:7472:genPackBits *{*
                                           ;; ***	genPackBits  7473
                                           ;;	879: aopGet AOP_PCODE type PO_IMMEDIATE
                                           ;;	_PORTC_bits
                                           ; >>> gen.c:7498:genPackBits
                                           	.line	221; "aquarium.c"	LED8 = 0;
000081   1387     bcf	0x7, 0x7             	BCF	_PORTC_bits,7
                                           ;; gen.c:2327:resultRemat *{*
                                           ;; gen.c:2327:resultRemat *{*
                                           ;; gen.c:7895:genPointerSet *{*
                                           ;; ***	genPointerSet  7896
                                           ;; gen.c:7723:genNearPointerSet *{*
                                           ;; ***	genNearPointerSet  7724
                                           ;;	689
                                           ;;	aopForRemat 474
                                           ;;	495: rname _PORTD_bits, val 0, const = 0
                                           ;; ***	genNearPointerSet  7741
                                           ;;	879: aopGet AOP_PCODE type PO_IMMEDIATE
                                           ;;	_PORTD_bits
                                           ;; 	line = 7743 result AOP_PCODE=_PORTD_bits, size=2, left -=-, size=0, right AOP_LIT=0x00, size=1
                                           ;; gen.c:7472:genPackBits *{*
                                           ;; ***	genPackBits  7473
                                           ;;	879: aopGet AOP_PCODE type PO_IMMEDIATE
                                           ;;	_PORTD_bits
                                           ; >>> gen.c:7498:genPackBits
                                           	.line	222; "aquarium.c"	LED9 = 0;
000082   1008     bcf	0x8, 0               	BCF	_PORTD_bits,0
                                           ;; gen.c:2327:resultRemat *{*
                                           ;; gen.c:2327:resultRemat *{*
                                           ;; gen.c:7895:genPointerSet *{*
                                           ;; ***	genPointerSet  7896
                                           ;; gen.c:7723:genNearPointerSet *{*
                                           ;; ***	genNearPointerSet  7724
                                           ;;	689
                                           ;;	aopForRemat 474
                                           ;;	495: rname _PORTD_bits, val 0, const = 0
                                           ;; ***	genNearPointerSet  7741
                                           ;;	879: aopGet AOP_PCODE type PO_IMMEDIATE
                                           ;;	_PORTD_bits
                                           ;; 	line = 7743 result AOP_PCODE=_PORTD_bits, size=2, left -=-, size=0, right AOP_LIT=0x00, size=1
                                           ;; gen.c:7472:genPackBits *{*
                                           ;; ***	genPackBits  7473
                                           ;;	879: aopGet AOP_PCODE type PO_IMMEDIATE
                                           ;;	_PORTD_bits
                                           ; >>> gen.c:7498:genPackBits
                                           	.line	223; "aquarium.c"	LED10 = 0;
000083   1088     bcf	0x8, 0x1             	BCF	_PORTD_bits,1
                                           ;; gen.c:2327:resultRemat *{*
                                           ;; gen.c:2327:resultRemat *{*
                                           ;; gen.c:7895:genPointerSet *{*
                                           ;; ***	genPointerSet  7896
                                           ;; gen.c:7723:genNearPointerSet *{*
                                           ;; ***	genNearPointerSet  7724
                                           ;;	689
                                           ;;	aopForRemat 474
                                           ;;	495: rname _PORTD_bits, val 0, const = 0
                                           ;; ***	genNearPointerSet  7741
                                           ;;	879: aopGet AOP_PCODE type PO_IMMEDIATE
                                           ;;	_PORTD_bits
                                           ;; 	line = 7743 result AOP_PCODE=_PORTD_bits, size=2, left -=-, size=0, right AOP_LIT=0x00, size=1
                                           ;; gen.c:7472:genPackBits *{*
                                           ;; ***	genPackBits  7473
                                           ;;	879: aopGet AOP_PCODE type PO_IMMEDIATE
                                           ;;	_PORTD_bits
                                           ; >>> gen.c:7498:genPackBits
                                           	.line	224; "aquarium.c"	LED11 = 0;
000084   1108     bcf	0x8, 0x2             	BCF	_PORTD_bits,2
                                           ;; gen.c:2327:resultRemat *{*
                                           ;; gen.c:2327:resultRemat *{*
                                           ;; gen.c:7895:genPointerSet *{*
                                           ;; ***	genPointerSet  7896
                                           ;; gen.c:7723:genNearPointerSet *{*
                                           ;; ***	genNearPointerSet  7724
                                           ;;	689
                                           ;;	aopForRemat 474
                                           ;;	495: rname _PORTD_bits, val 0, const = 0
                                           ;; ***	genNearPointerSet  7741
                                           ;;	879: aopGet AOP_PCODE type PO_IMMEDIATE
                                           ;;	_PORTD_bits
                                           ;; 	line = 7743 result AOP_PCODE=_PORTD_bits, size=2, left -=-, size=0, right AOP_LIT=0x00, size=1
                                           ;; gen.c:7472:genPackBits *{*
                                           ;; ***	genPackBits  7473
                                           ;;	879: aopGet AOP_PCODE type PO_IMMEDIATE
                                           ;;	_PORTD_bits
                                           ; >>> gen.c:7498:genPackBits
                                           	.line	225; "aquarium.c"	LED12 = 0;
000085   1188     bcf	0x8, 0x3             	BCF	_PORTD_bits,3
                                           ;; gen.c:2327:resultRemat *{*
                                           ;; gen.c:2327:resultRemat *{*
                                           ;; gen.c:7895:genPointerSet *{*
                                           ;; ***	genPointerSet  7896
                                           ;; gen.c:7723:genNearPointerSet *{*
                                           ;; ***	genNearPointerSet  7724
                                           ;;	689
                                           ;;	aopForRemat 474
                                           ;;	495: rname _PORTD_bits, val 0, const = 0
                                           ;; ***	genNearPointerSet  7741
                                           ;;	879: aopGet AOP_PCODE type PO_IMMEDIATE
                                           ;;	_PORTD_bits
                                           ;; 	line = 7743 result AOP_PCODE=_PORTD_bits, size=2, left -=-, size=0, right AOP_LIT=0x00, size=1
                                           ;; gen.c:7472:genPackBits *{*
                                           ;; ***	genPackBits  7473
                                           ;;	879: aopGet AOP_PCODE type PO_IMMEDIATE
                                           ;;	_PORTD_bits
                                           ; >>> gen.c:7498:genPackBits
                                           	.line	226; "aquarium.c"	LED13 = 0;
000086   1208     bcf	0x8, 0x4             	BCF	_PORTD_bits,4
                                           ;; gen.c:2327:resultRemat *{*
                                           ;; gen.c:2327:resultRemat *{*
                                           ;; gen.c:7895:genPointerSet *{*
                                           ;; ***	genPointerSet  7896
                                           ;; gen.c:7723:genNearPointerSet *{*
                                           ;; ***	genNearPointerSet  7724
                                           ;;	689
                                           ;;	aopForRemat 474
                                           ;;	495: rname _PORTD_bits, val 0, const = 0
                                           ;; ***	genNearPointerSet  7741
                                           ;;	879: aopGet AOP_PCODE type PO_IMMEDIATE
                                           ;;	_PORTD_bits
                                           ;; 	line = 7743 result AOP_PCODE=_PORTD_bits, size=2, left -=-, size=0, right AOP_LIT=0x00, size=1
                                           ;; gen.c:7472:genPackBits *{*
                                           ;; ***	genPackBits  7473
                                           ;;	879: aopGet AOP_PCODE type PO_IMMEDIATE
                                           ;;	_PORTD_bits
                                           ; >>> gen.c:7498:genPackBits
                                           	.line	227; "aquarium.c"	LED14 = 0;
000087   1288     bcf	0x8, 0x5             	BCF	_PORTD_bits,5
                                           ;; gen.c:2327:resultRemat *{*
                                           ;; gen.c:2327:resultRemat *{*
                                           ;; gen.c:7895:genPointerSet *{*
                                           ;; ***	genPointerSet  7896
                                           ;; gen.c:7723:genNearPointerSet *{*
                                           ;; ***	genNearPointerSet  7724
                                           ;;	689
                                           ;;	aopForRemat 474
                                           ;;	495: rname _PORTD_bits, val 0, const = 0
                                           ;; ***	genNearPointerSet  7741
                                           ;;	879: aopGet AOP_PCODE type PO_IMMEDIATE
                                           ;;	_PORTD_bits
                                           ;; 	line = 7743 result AOP_PCODE=_PORTD_bits, size=2, left -=-, size=0, right AOP_LIT=0x00, size=1
                                           ;; gen.c:7472:genPackBits *{*
                                           ;; ***	genPackBits  7473
                                           ;;	879: aopGet AOP_PCODE type PO_IMMEDIATE
                                           ;;	_PORTD_bits
                                           ; >>> gen.c:7498:genPackBits
                                           	.line	228; "aquarium.c"	LED15 = 0;
000088   1308     bcf	0x8, 0x6             	BCF	_PORTD_bits,6
                                           ;; gen.c:2327:resultRemat *{*
                                           ;; gen.c:2327:resultRemat *{*
                                           ;; gen.c:7895:genPointerSet *{*
                                           ;; ***	genPointerSet  7896
                                           ;; gen.c:7723:genNearPointerSet *{*
                                           ;; ***	genNearPointerSet  7724
                                           ;;	689
                                           ;;	aopForRemat 474
                                           ;;	495: rname _PORTD_bits, val 0, const = 0
                                           ;; ***	genNearPointerSet  7741
                                           ;;	879: aopGet AOP_PCODE type PO_IMMEDIATE
                                           ;;	_PORTD_bits
                                           ;; 	line = 7743 result AOP_PCODE=_PORTD_bits, size=2, left -=-, size=0, right AOP_LIT=0x00, size=1
                                           ;; gen.c:7472:genPackBits *{*
                                           ;; ***	genPackBits  7473
                                           ;;	879: aopGet AOP_PCODE type PO_IMMEDIATE
                                           ;;	_PORTD_bits
                                           ; >>> gen.c:7498:genPackBits
                                           	.line	230; "aquarium.c"	LED16 = 0;
000089   1388     bcf	0x8, 0x7             	BCF	_PORTD_bits,7
                                           ;; gen.c:2327:resultRemat *{*
                                           ;; gen.c:2327:resultRemat *{*
                                           ;; gen.c:7895:genPointerSet *{*
                                           ;; ***	genPointerSet  7896
                                           ;; gen.c:7723:genNearPointerSet *{*
                                           ;; ***	genNearPointerSet  7724
                                           ;;	689
                                           ;;	aopForRemat 474
                                           ;;	495: rname _PORTB_bits, val 0, const = 0
                                           ;; ***	genNearPointerSet  7741
                                           ;;	879: aopGet AOP_PCODE type PO_IMMEDIATE
                                           ;;	_PORTB_bits
                                           ;; 	line = 7743 result AOP_PCODE=_PORTB_bits, size=2, left -=-, size=0, right AOP_LIT=0x00, size=1
                                           ;; gen.c:7472:genPackBits *{*
                                           ;; ***	genPackBits  7473
                                           ;;	879: aopGet AOP_PCODE type PO_IMMEDIATE
                                           ;;	_PORTB_bits
                                           ; >>> gen.c:7498:genPackBits
                                           	.line	231; "aquarium.c"	LED17 = 0;
00008a   1006     bcf	0x6, 0               	BCF	_PORTB_bits,0
                                           ;; gen.c:2327:resultRemat *{*
                                           ;; gen.c:2327:resultRemat *{*
                                           ;; gen.c:7895:genPointerSet *{*
                                           ;; ***	genPointerSet  7896
                                           ;; gen.c:7723:genNearPointerSet *{*
                                           ;; ***	genNearPointerSet  7724
                                           ;;	689
                                           ;;	aopForRemat 474
                                           ;;	495: rname _PORTB_bits, val 0, const = 0
                                           ;; ***	genNearPointerSet  7741
                                           ;;	879: aopGet AOP_PCODE type PO_IMMEDIATE
                                           ;;	_PORTB_bits
                                           ;; 	line = 7743 result AOP_PCODE=_PORTB_bits, size=2, left -=-, size=0, right AOP_LIT=0x00, size=1
                                           ;; gen.c:7472:genPackBits *{*
                                           ;; ***	genPackBits  7473
                                           ;;	879: aopGet AOP_PCODE type PO_IMMEDIATE
                                           ;;	_PORTB_bits
                                           ; >>> gen.c:7498:genPackBits
                                           	.line	232; "aquarium.c"	LED18 = 0;
00008b   1086     bcf	0x6, 0x1             	BCF	_PORTB_bits,1
                                           ;; gen.c:2327:resultRemat *{*
                                           ;; gen.c:2327:resultRemat *{*
                                           ;; gen.c:7895:genPointerSet *{*
                                           ;; ***	genPointerSet  7896
                                           ;; gen.c:7723:genNearPointerSet *{*
                                           ;; ***	genNearPointerSet  7724
                                           ;;	689
                                           ;;	aopForRemat 474
                                           ;;	495: rname _PORTB_bits, val 0, const = 0
                                           ;; ***	genNearPointerSet  7741
                                           ;;	879: aopGet AOP_PCODE type PO_IMMEDIATE
                                           ;;	_PORTB_bits
                                           ;; 	line = 7743 result AOP_PCODE=_PORTB_bits, size=2, left -=-, size=0, right AOP_LIT=0x00, size=1
                                           ;; gen.c:7472:genPackBits *{*
                                           ;; ***	genPackBits  7473
                                           ;;	879: aopGet AOP_PCODE type PO_IMMEDIATE
                                           ;;	_PORTB_bits
                                           ; >>> gen.c:7498:genPackBits
                                           	.line	233; "aquarium.c"	LED19 = 0;
00008c   1106     bcf	0x6, 0x2             	BCF	_PORTB_bits,2
                                           ;; gen.c:2327:resultRemat *{*
                                           ;; gen.c:2327:resultRemat *{*
                                           ;; gen.c:7895:genPointerSet *{*
                                           ;; ***	genPointerSet  7896
                                           ;; gen.c:7723:genNearPointerSet *{*
                                           ;; ***	genNearPointerSet  7724
                                           ;;	689
                                           ;;	aopForRemat 474
                                           ;;	495: rname _PORTB_bits, val 0, const = 0
                                           ;; ***	genNearPointerSet  7741
                                           ;;	879: aopGet AOP_PCODE type PO_IMMEDIATE
                                           ;;	_PORTB_bits
                                           ;; 	line = 7743 result AOP_PCODE=_PORTB_bits, size=2, left -=-, size=0, right AOP_LIT=0x00, size=1
                                           ;; gen.c:7472:genPackBits *{*
                                           ;; ***	genPackBits  7473
                                           ;;	879: aopGet AOP_PCODE type PO_IMMEDIATE
                                           ;;	_PORTB_bits
                                           ; >>> gen.c:7498:genPackBits
                                           	.line	234; "aquarium.c"	LED20 = 0;
00008d   1186     bcf	0x6, 0x3             	BCF	_PORTB_bits,3
                                           ;; gen.c:2327:resultRemat *{*
                                           ;; gen.c:2327:resultRemat *{*
                                           ;; gen.c:7895:genPointerSet *{*
                                           ;; ***	genPointerSet  7896
                                           ;; gen.c:7723:genNearPointerSet *{*
                                           ;; ***	genNearPointerSet  7724
                                           ;;	689
                                           ;;	aopForRemat 474
                                           ;;	495: rname _PORTB_bits, val 0, const = 0
                                           ;; ***	genNearPointerSet  7741
                                           ;;	879: aopGet AOP_PCODE type PO_IMMEDIATE
                                           ;;	_PORTB_bits
                                           ;; 	line = 7743 result AOP_PCODE=_PORTB_bits, size=2, left -=-, size=0, right AOP_LIT=0x00, size=1
                                           ;; gen.c:7472:genPackBits *{*
                                           ;; ***	genPackBits  7473
                                           ;;	879: aopGet AOP_PCODE type PO_IMMEDIATE
                                           ;;	_PORTB_bits
                                           ; >>> gen.c:7498:genPackBits
                                           	.line	235; "aquarium.c"	LED21 = 0;
00008e   1206     bcf	0x6, 0x4             	BCF	_PORTB_bits,4
                                           ;; gen.c:2327:resultRemat *{*
                                           ;; gen.c:2327:resultRemat *{*
                                           ;; gen.c:7895:genPointerSet *{*
                                           ;; ***	genPointerSet  7896
                                           ;; gen.c:7723:genNearPointerSet *{*
                                           ;; ***	genNearPointerSet  7724
                                           ;;	689
                                           ;;	aopForRemat 474
                                           ;;	495: rname _PORTB_bits, val 0, const = 0
                                           ;; ***	genNearPointerSet  7741
                                           ;;	879: aopGet AOP_PCODE type PO_IMMEDIATE
                                           ;;	_PORTB_bits
                                           ;; 	line = 7743 result AOP_PCODE=_PORTB_bits, size=2, left -=-, size=0, right AOP_LIT=0x00, size=1
                                           ;; gen.c:7472:genPackBits *{*
                                           ;; ***	genPackBits  7473
                                           ;;	879: aopGet AOP_PCODE type PO_IMMEDIATE
                                           ;;	_PORTB_bits
                                           ; >>> gen.c:7498:genPackBits
                                           	.line	236; "aquarium.c"	LED22 = 0;	
00008f   1286     bcf	0x6, 0x5             	BCF	_PORTB_bits,5
                                           ;; gen.c:2327:resultRemat *{*
                                           ;; gen.c:2703:genGoto *{*
                                           ; >>> gen.c:2705:genGoto
                                           ;; ***	popGetLabel  key=2, label offset 109
000090   2877     goto	0x77                	GOTO	_00211_DS_
                                           ;; gen.c:2327:resultRemat *{*
                                           ;; gen.c:2686:genLabel *{*
                                           ;; ***	genLabel  2689
                                           ;; gen.c:2327:resultRemat *{*
                                           ;; gen.c:2524:genEndFunction *{*
                                           ;; ***	genEndFunction  2526
000091   0008     return                   	RETURN	
                                           ; exit point of _main
                                           
                                           ;***
                                           ;  pBlock Stats: dbName = C
                                           ;***
                                           ;entry:  _setLEDBothPWM	;Function start
                                           ; 2 exit points
                                           ;has an exit
                                           ;functions called:
                                           ;   _setLEDPWM
                                           ;   _setLEDPWM
                                           ;   _setLEDPWM
                                           ;   _setLEDPWM
                                           ;5 compiler assigned registers:
                                           ;   r0x1021
                                           ;   STK00
                                           ;   r0x1022
                                           ;   STK01
                                           ;   r0x1023
                                           ;; Starting pCode block
                                           ;; gen.c:2327:resultRemat *{*
                                           ;; gen.c:2686:genLabel *{*
                                           ;; ***	genLabel  2689
                                           ;; gen.c:2327:resultRemat *{*
                                           ;; gen.c:2372:genFunction *{*
                                           ;; ***	genFunction  2374 curr label offset=96previous max_key=0 
                                           _setLEDBothPWM	;Function start
                                           ; 2 exit points
                                           ;; gen.c:2327:resultRemat *{*
                                           ;; gen.c:8685:genReceive *{*
                                           ;; ***	genReceive  8686
                                           ;;	769 register type nRegs=1
                                           ;; gen.c:1882:assignResultValue *{*
                                           ;; ***	assignResultValue  1884
                                           ;; 	line = 1886 result -=-, size=0, left AOP_REG=r0x1068, size=1, right -=-, size=0
                                           ; >>> gen.c:1433:movwf
                                           ;;	1150 rIdx = r0x1068 
                                           	.line	189; "aquarium.c"	void setLEDBothPWM(char number, char value, char mirror)
000092   1283     bcf	0x3, 0x5             	BANKSEL	r0x1021
000093   1303     bcf	0x3, 0x6             
000094   00c9     movwf	0x49               	MOVWF	r0x1021
                                           ;; gen.c:2327:resultRemat *{*
                                           ;; gen.c:8685:genReceive *{*
                                           ;; ***	genReceive  8686
                                           ;;	769 register type nRegs=1
                                           ;; gen.c:1882:assignResultValue *{*
                                           ;; ***	assignResultValue  1884
                                           ;; 	line = 1886 result -=-, size=0, left AOP_REG=r0x1069, size=1, right -=-, size=0
                                           ; >>> gen.c:1459:get_returnvalue
                                           ;; ***	popRegFromIdx,1066  , rIdx=0x2f
000095   1283     bcf	0x3, 0x5             	BANKSEL	STK00
000096   1303     bcf	0x3, 0x6             
000097   082f     movf	0x2f, w             	MOVF	STK00,W
                                           ; >>> gen.c:1433:movwf
                                           ;;	1150 rIdx = r0x1069 
000098   1283     bcf	0x3, 0x5             	BANKSEL	r0x1022
000099   1303     bcf	0x3, 0x6             
00009a   00ca     movwf	0x4a               	MOVWF	r0x1022
                                           ;; gen.c:2327:resultRemat *{*
                                           ;; gen.c:8685:genReceive *{*
                                           ;; ***	genReceive  8686
                                           ;;	769 register type nRegs=1
                                           ;; gen.c:1882:assignResultValue *{*
                                           ;; ***	assignResultValue  1884
                                           ;; 	line = 1886 result -=-, size=0, left AOP_REG=r0x106A, size=1, right -=-, size=0
                                           ; >>> gen.c:1459:get_returnvalue
                                           ;; ***	popRegFromIdx,1066  , rIdx=0x2e
00009b   1283     bcf	0x3, 0x5             	BANKSEL	STK01
00009c   1303     bcf	0x3, 0x6             
00009d   082e     movf	0x2e, w             	MOVF	STK01,W
                                           ; >>> gen.c:1433:movwf
                                           ;;	1150 rIdx = r0x106A 
00009e   1283     bcf	0x3, 0x5             	BANKSEL	r0x1023
00009f   1303     bcf	0x3, 0x6             
0000a0   00cb     movwf	0x4b               	MOVWF	r0x1023
                                           ;; gen.c:2327:resultRemat *{*
                                           ;; gen.c:4410:ifxForOp *{*
                                           ;; ***	ifxForOp  4412
                                           ;; gen.c:4263:genCmpLt *{*
                                           ;; ***	genCmpLt  4264
                                           ;;	769 register type nRegs=1
                                           ;; gen.c:3365:genCmp *{*
                                           ;signed compare: left < lit(0xB=11), size=1, mask=ff
                                           ;; ***	mov2w  1422  offset=0
                                           ; >>> gen.c:1427:mov2w
                                           ;;	1150 rIdx = r0x1068 
                                           	.line	191; "aquarium.c"	if (number < 11)
0000a1   0849     movf	0x49, w             	MOVF	r0x1021,W
                                           ; >>> gen.c:3489:genCmp
0000a2   3e80     addlw	0x80               	ADDLW	0x80
                                           ; >>> gen.c:3490:genCmp
0000a3   3e75     addlw	0x75               	ADDLW	0x75
                                           ;; gen.c:3215:genSkipc *{*
                                           ; >>> gen.c:3220:genSkipc
0000a4   1803     btfsc	0x3, 0             	BTFSC	STATUS,0
                                           ; >>> gen.c:3224:genSkipc
                                           ;; ***	popGetLabel  key=2, label offset 100
0000a5   28ae     goto	0xae                	GOTO	_00202_DS_
                                           ;genSkipc:3225: created from rifx:0xbfff5a80
                                           ;; gen.c:2327:resultRemat *{*
                                           ;; gen.c:2327:resultRemat *{*
                                           ;; gen.c:2327:resultRemat *{*
                                           ;; gen.c:2327:resultRemat *{*
                                           ;; gen.c:2096:genCall *{*
                                           ;; ***	genCall  2098
                                           ;; gen.c:1781:saveRegisters *{*
                                           ;; ***	saveRegisters  1783
                                           ;;	769 register type nRegs=1
                                           ;;	769 register type nRegs=1
                                           ;;	769 register type nRegs=1
                                           ;; 	2145 left AOP_REG
                                           ;; gen.c:1390:mov2w_op *{*
                                           ;; ***	mov2w  1422  offset=0
                                           ; >>> gen.c:1427:mov2w
                                           ;;	1150 rIdx = r0x1069 
                                           	.line	192; "aquarium.c"	setLEDPWM(number, value);
0000a6   084a     movf	0x4a, w             	MOVF	r0x1022,W
                                           ;;	769 register type nRegs=1
                                           ;; 	2145 left AOP_REG
                                           ; >>> gen.c:2153:genCall
                                           ;; ***	popRegFromIdx,1066  , rIdx=0x2f
0000a7   1283     bcf	0x3, 0x5             	BANKSEL	STK00
0000a8   1303     bcf	0x3, 0x6             
0000a9   00af     movwf	0x2f               	MOVWF	STK00
                                           ;; gen.c:1390:mov2w_op *{*
                                           ;; ***	mov2w  1422  offset=0
                                           ; >>> gen.c:1427:mov2w
                                           ;;	1150 rIdx = r0x1068 
0000aa   1283     bcf	0x3, 0x5             	BANKSEL	r0x1021
0000ab   1303     bcf	0x3, 0x6             
0000ac   0849     movf	0x49, w             	MOVF	r0x1021,W
                                           ; >>> gen.c:2184:genCall
0000ad   20c7     call	0xc7                	CALL	_setLEDPWM
                                           ;; gen.c:1825:unsaveRegisters *{*
                                           ;; ***	unsaveRegisters  1827
                                           ;; gen.c:2327:resultRemat *{*
                                           ;; gen.c:2686:genLabel *{*
                                           ;; ***	genLabel  2689
                                           ;; gen.c:2327:resultRemat *{*
                                           ;; gen.c:7965:genIfx *{*
                                           ;; ***	genIfx  7966
                                           ;;	769 register type nRegs=1
                                           ;; ***	pic14_toBoolean  1566
                                           ; >>> gen.c:1572:pic14_toBoolean
                                           _00202_DS_
                                           	.line	194; "aquarium.c"	if (mirror)
0000ae   3000     movlw	0                  	MOVLW	0x00
                                           ; >>> gen.c:1580:pic14_toBoolean
                                           ;;	1150 rIdx = r0x106A 
0000af   1283     bcf	0x3, 0x5             	BANKSEL	r0x1023
0000b0   1303     bcf	0x3, 0x6             
0000b1   044b     iorwf	0x4b, w            	IORWF	r0x1023,W
                                           ; >>> gen.c:8014:genIfx
0000b2   1903     btfsc	0x3, 0x2           	BTFSC	STATUS,2
                                           ; >>> gen.c:8015:genIfx
                                           ;; ***	popGetLabel  key=4, label offset 100
0000b3   28b8     goto	0xb8                	GOTO	_00204_DS_
                                           ;; gen.c:2327:resultRemat *{*
                                           ;; gen.c:4410:ifxForOp *{*
                                           ;; ***	ifxForOp  4412
                                           ;; NULL :(	4432
                                           ;; gen.c:8641:genDjnz *{*
                                           ;; ***	genDjnz  8642
                                           ;; genarith.c:1008:genMinus *{*
                                           ;; ***	genMinus  1009
                                           ;;	769 register type nRegs=1
                                           ;;	654
                                           ;; 	result AOP_REG, left AOP_LIT, right AOP_REG
                                           ;; ***	pic14_getDataSize  1492
                                           ;; ***	pic14_getDataSize  1492
                                           ;; left is lit	line 1126 result AOP_REG, left AOP_LIT, right AOP_REG
                                           ;; ***	mov2w  1422  offset=0
                                           ; >>> gen.c:1427:mov2w
                                           ;;	1150 rIdx = r0x1068 
                                           	.line	195; "aquarium.c"	number = 22-number;
0000b4   0849     movf	0x49, w             	MOVF	r0x1021,W
                                           ; >>> genarith.c:1165:genMinus
0000b5   3c16     sublw	0x16               	SUBLW	0x16
                                           ; >>> genarith.c:1166:genMinus
                                           ;;	1150 rIdx = r0x1068 
0000b6   00c9     movwf	0x49               	MOVWF	r0x1021
                                           ;; gen.c:2327:resultRemat *{*
                                           ;; gen.c:2703:genGoto *{*
                                           ; >>> gen.c:2705:genGoto
                                           ;; ***	popGetLabel  key=5, label offset 100
0000b7   28bc     goto	0xbc                	GOTO	_00205_DS_
                                           ;; gen.c:2327:resultRemat *{*
                                           ;; gen.c:2686:genLabel *{*
                                           ;; ***	genLabel  2689
                                           ;; gen.c:2327:resultRemat *{*
                                           ;; ***	genPlus  718
                                           ;; genarith.c:719:genPlus *{*
                                           ;;	769 register type nRegs=1
                                           ;;	654
                                           ;; 	line = 725 result AOP_REG=r0x1068, size=1, left AOP_REG=r0x1068, size=1, right AOP_LIT=0x0b, size=1
                                           ;; ***	pic14_getDataSize  1492
                                           ;; genarith.c:181:genPlusIncr *{*
                                           ;; ***	genPlusIncr  183
                                           ;; 	result AOP_REG, left AOP_REG, right AOP_LIT
                                           ;; 	genPlusIncr  195
                                           ;; ***	pic14_getDataSize  1492
                                           ;;	adding lit to something. size 1
                                           ;; genarith.c:399:genAddLit *{*
                                           ;; ***	genAddLit  400
                                           ;; ***	pic14_getDataSize  1492
                                           ;; ***	pic14_getDataSize  1492
                                           ;; genarith.c:362:genAddLit2byte *{*
                                           ; >>> genarith.c:374:genAddLit2byte
                                           _00204_DS_
                                           	.line	197; "aquarium.c"	number += 11;
0000b8   300b     movlw	0xb                	MOVLW	0x0b
                                           ; >>> genarith.c:375:genAddLit2byte
                                           ;;	1150 rIdx = r0x1068 
0000b9   1283     bcf	0x3, 0x5             	BANKSEL	r0x1021
0000ba   1303     bcf	0x3, 0x6             
0000bb   07c9     addwf	0x49, f            	ADDWF	r0x1021,F
                                           ;; ***	pic14_getDataSize  1492
                                           ;; ***	pic14_getDataSize  1492
                                           ;; ***	pic14_getDataSize  1492
                                           ;; ***	addSign  973
                                           ;; genarith.c:974:addSign *{*
                                           ;; gen.c:2327:resultRemat *{*
                                           ;; gen.c:2686:genLabel *{*
                                           ;; ***	genLabel  2689
                                           ;; gen.c:2327:resultRemat *{*
                                           ;; gen.c:2327:resultRemat *{*
                                           ;; gen.c:2327:resultRemat *{*
                                           ;; gen.c:2096:genCall *{*
                                           ;; ***	genCall  2098
                                           ;; gen.c:1781:saveRegisters *{*
                                           ;; ***	saveRegisters  1783
                                           ;;	769 register type nRegs=1
                                           ;;	769 register type nRegs=1
                                           ;;	769 register type nRegs=1
                                           ;; 	2145 left AOP_REG
                                           ;; gen.c:1390:mov2w_op *{*
                                           ;; ***	mov2w  1422  offset=0
                                           ; >>> gen.c:1427:mov2w
                                           ;;	1150 rIdx = r0x1069 
                                           _00205_DS_
                                           	.line	198; "aquarium.c"	setLEDPWM(number, value);
0000bc   1283     bcf	0x3, 0x5             	BANKSEL	r0x1022
0000bd   1303     bcf	0x3, 0x6             
0000be   084a     movf	0x4a, w             	MOVF	r0x1022,W
                                           ;;	769 register type nRegs=1
                                           ;; 	2145 left AOP_REG
                                           ; >>> gen.c:2153:genCall
                                           ;; ***	popRegFromIdx,1066  , rIdx=0x2f
0000bf   1283     bcf	0x3, 0x5             	BANKSEL	STK00
0000c0   1303     bcf	0x3, 0x6             
0000c1   00af     movwf	0x2f               	MOVWF	STK00
                                           ;; gen.c:1390:mov2w_op *{*
                                           ;; ***	mov2w  1422  offset=0
                                           ; >>> gen.c:1427:mov2w
                                           ;;	1150 rIdx = r0x1068 
0000c2   1283     bcf	0x3, 0x5             	BANKSEL	r0x1021
0000c3   1303     bcf	0x3, 0x6             
0000c4   0849     movf	0x49, w             	MOVF	r0x1021,W
                                           ; >>> gen.c:2184:genCall
0000c5   20c7     call	0xc7                	CALL	_setLEDPWM
                                           ;; gen.c:1825:unsaveRegisters *{*
                                           ;; ***	unsaveRegisters  1827
                                           ;; gen.c:2327:resultRemat *{*
                                           ;; gen.c:2686:genLabel *{*
                                           ;; ***	genLabel  2689
                                           ;; gen.c:2327:resultRemat *{*
                                           ;; gen.c:2524:genEndFunction *{*
                                           ;; ***	genEndFunction  2526
0000c6   0008     return                   	RETURN	
                                           ; exit point of _setLEDBothPWM
                                           ;; gen.c:8749:genpic14Code *{*
                                           
                                           ;***
                                           ;  pBlock Stats: dbName = C
                                           ;***
                                           ;entry:  _setLEDPWM	;Function start
                                           ; 2 exit points
                                           ;has an exit
                                           ;4 compiler assigned registers:
                                           ;   r0x1024
                                           ;   STK00
                                           ;   r0x1025
                                           ;   r0x1026
                                           ;; Starting pCode block
                                           ;; gen.c:2327:resultRemat *{*
                                           ;; gen.c:2686:genLabel *{*
                                           ;; ***	genLabel  2689
                                           ;; gen.c:2327:resultRemat *{*
                                           ;; gen.c:2372:genFunction *{*
                                           ;; ***	genFunction  2374 curr label offset=87previous max_key=5 
                                           _setLEDPWM	;Function start
                                           ; 2 exit points
                                           ;; gen.c:2327:resultRemat *{*
                                           ;; gen.c:8685:genReceive *{*
                                           ;; ***	genReceive  8686
                                           ;;	769 register type nRegs=1
                                           ;; gen.c:1882:assignResultValue *{*
                                           ;; ***	assignResultValue  1884
                                           ;; 	line = 1886 result -=-, size=0, left AOP_REG=r0x1065, size=1, right -=-, size=0
                                           ; >>> gen.c:1433:movwf
                                           ;;	1150 rIdx = r0x1065 
                                           	.line	184; "aquarium.c"	void setLEDPWM(char number, char value)
0000c7   1283     bcf	0x3, 0x5             	BANKSEL	r0x1024
0000c8   1303     bcf	0x3, 0x6             
0000c9   00c6     movwf	0x46               	MOVWF	r0x1024
                                           ;; gen.c:2327:resultRemat *{*
                                           ;; gen.c:8685:genReceive *{*
                                           ;; ***	genReceive  8686
                                           ;;	769 register type nRegs=1
                                           ;; gen.c:1882:assignResultValue *{*
                                           ;; ***	assignResultValue  1884
                                           ;; 	line = 1886 result -=-, size=0, left AOP_REG=r0x1066, size=1, right -=-, size=0
                                           ; >>> gen.c:1459:get_returnvalue
                                           ;; ***	popRegFromIdx,1066  , rIdx=0x2f
0000ca   1283     bcf	0x3, 0x5             	BANKSEL	STK00
0000cb   1303     bcf	0x3, 0x6             
0000cc   082f     movf	0x2f, w             	MOVF	STK00,W
                                           ; >>> gen.c:1433:movwf
                                           ;;	1150 rIdx = r0x1066 
0000cd   1283     bcf	0x3, 0x5             	BANKSEL	r0x1025
0000ce   1303     bcf	0x3, 0x6             
0000cf   00c7     movwf	0x47               	MOVWF	r0x1025
                                           ;; gen.c:2327:resultRemat *{*
                                           ;; gen.c:2327:resultRemat *{*
                                           ;; ***	genPlus  718
                                           ;; genarith.c:719:genPlus *{*
                                           ;;	689
                                           ;;	aopForRemat 474
                                           ;;	495: rname _PWM, val 0, const = 0
                                           ;;	769 register type nRegs=1
                                           ;;	769 register type nRegs=2
                                           ;;	879: aopGet AOP_PCODE type PO_IMMEDIATE
                                           ;;	_PWM
                                           ;; 	line = 725 result AOP_REG=r0x1065, size=2, left AOP_PCODE=_PWM, size=2, right AOP_REG=r0x1065, size=1
                                           ;; ***	pic14_getDataSize  1492
                                           ;; genarith.c:181:genPlusIncr *{*
                                           ;; ***	genPlusIncr  183
                                           ;; 	result AOP_REG, left AOP_PCODE, right AOP_REG
                                           ;; ***	pic14_getDataSize  1492
                                           ;; ***	genPlus  829
                                           ;;	879: aopGet AOP_PCODE type PO_IMMEDIATE
                                           ;;	_PWM
                                           ; >>> genarith.c:838:genPlus
                                           ;;	1150 rIdx = r0x1065 
                                           	.line	186; "aquarium.c"	PWM[number] = value;
0000d0   0846     movf	0x46, w             	MOVF	r0x1024,W
                                           ; >>> genarith.c:847:genPlus
0000d1   3e4c     addlw	0x4c               	ADDLW	(_PWM + 0)
                                           ; >>> genarith.c:848:genPlus
                                           ;;	1150 rIdx = r0x1065 
0000d2   00c6     movwf	0x46               	MOVWF	r0x1024
                                           ; >>> genarith.c:911:genPlus
0000d3   3000     movlw	0                  	MOVLW	high (_PWM + 0)
                                           ; >>> genarith.c:912:genPlus
0000d4   1803     btfsc	0x3, 0             	BTFSC	STATUS,0
                                           ; >>> genarith.c:913:genPlus
0000d5   3e01     addlw	0x1                	ADDLW	0x01
                                           ; >>> genarith.c:914:genPlus
                                           ;;	1150 rIdx = r0x1067 
0000d6   00c8     movwf	0x48               	MOVWF	r0x1026
                                           ;; gen.c:2327:resultRemat *{*
                                           ;; gen.c:7895:genPointerSet *{*
                                           ;; ***	genPointerSet  7896
                                           ;; gen.c:7723:genNearPointerSet *{*
                                           ;; ***	genNearPointerSet  7724
                                           ;;	769 register type nRegs=2
                                           ;; ***	genNearPointerSet  7741
                                           ;;	769 register type nRegs=1
                                           ;; 	line = 7743 result AOP_REG=r0x1065, size=2, left -=-, size=0, right AOP_REG=r0x1066, size=1
                                           ;; gen.c:1390:mov2w_op *{*
                                           ;; ***	mov2w  1422  offset=0
                                           ; >>> gen.c:1427:mov2w
                                           ;;	1150 rIdx = r0x1065 
0000d7   0846     movf	0x46, w             	MOVF	r0x1024,W
                                           ; >>> gen.c:6924:setup_fsr
0000d8   0084     movwf	0x4                	MOVWF	FSR
                                           ;; gen.c:6894:SetIrp *{*
                                           ; >>> gen.c:6911:SetIrp
0000d9   1383     bcf	0x3, 0x7             	BCF	STATUS,7
                                           ; >>> gen.c:6913:SetIrp
0000da   1848     btfsc	0x48, 0            	BTFSC	r0x1026,0
                                           ; >>> gen.c:6914:SetIrp
0000db   1783     bsf	0x3, 0x7             	BSF	STATUS,7
                                           ;; ***	genNearPointerSet  7770
                                           ; >>> gen.c:7779:genNearPointerSet
                                           ;;	1150 rIdx = r0x1066 
0000dc   0847     movf	0x47, w             	MOVF	r0x1025,W
                                           ; >>> gen.c:7784:genNearPointerSet
0000dd   0080     movwf	0                  	MOVWF	INDF
                                           ;; ***	genNearPointerSet  7792
                                           ;; ***	genNearPointerSet  7803
                                           ;; ***	genNearPointerSet  7814
                                           ;; gen.c:2327:resultRemat *{*
                                           ;; gen.c:2686:genLabel *{*
                                           ;; ***	genLabel  2689
                                           ;; gen.c:2327:resultRemat *{*
                                           ;; gen.c:2524:genEndFunction *{*
                                           ;; ***	genEndFunction  2526
0000de   0008     return                   	RETURN	
                                           ; exit point of _setLEDPWM
                                           ;; gen.c:8749:genpic14Code *{*
                                           
                                           ;***
                                           ;  pBlock Stats: dbName = C
                                           ;***
                                           ;entry:  _setLEDBothDiscrete	;Function start
                                           ; 2 exit points
                                           ;has an exit
                                           ;functions called:
                                           ;   _setLEDDiscrete
                                           ;   _setLEDDiscrete
                                           ;   _setLEDDiscrete
                                           ;   _setLEDDiscrete
                                           ;5 compiler assigned registers:
                                           ;   r0x1027
                                           ;   STK00
                                           ;   r0x1028
                                           ;   STK01
                                           ;   r0x1029
                                           ;; Starting pCode block
                                           ;; gen.c:2327:resultRemat *{*
                                           ;; gen.c:2686:genLabel *{*
                                           ;; ***	genLabel  2689
                                           ;; gen.c:2327:resultRemat *{*
                                           ;; gen.c:2372:genFunction *{*
                                           ;; ***	genFunction  2374 curr label offset=52previous max_key=31 
                                           _setLEDBothDiscrete	;Function start
                                           ; 2 exit points
                                           ;; gen.c:2327:resultRemat *{*
                                           ;; gen.c:8685:genReceive *{*
                                           ;; ***	genReceive  8686
                                           ;;	769 register type nRegs=1
                                           ;; gen.c:1882:assignResultValue *{*
                                           ;; ***	assignResultValue  1884
                                           ;; 	line = 1886 result -=-, size=0, left AOP_REG=r0x1062, size=1, right -=-, size=0
                                           ; >>> gen.c:1433:movwf
                                           ;;	1150 rIdx = r0x1062 
                                           	.line	172; "aquarium.c"	void setLEDBothDiscrete(char number, char value, char mirror)
0000df   1283     bcf	0x3, 0x5             	BANKSEL	r0x1027
0000e0   1303     bcf	0x3, 0x6             
0000e1   00c3     movwf	0x43               	MOVWF	r0x1027
                                           ;; gen.c:2327:resultRemat *{*
                                           ;; gen.c:8685:genReceive *{*
                                           ;; ***	genReceive  8686
                                           ;;	769 register type nRegs=1
                                           ;; gen.c:1882:assignResultValue *{*
                                           ;; ***	assignResultValue  1884
                                           ;; 	line = 1886 result -=-, size=0, left AOP_REG=r0x1063, size=1, right -=-, size=0
                                           ; >>> gen.c:1459:get_returnvalue
                                           ;; ***	popRegFromIdx,1066  , rIdx=0x2f
0000e2   1283     bcf	0x3, 0x5             	BANKSEL	STK00
0000e3   1303     bcf	0x3, 0x6             
0000e4   082f     movf	0x2f, w             	MOVF	STK00,W
                                           ; >>> gen.c:1433:movwf
                                           ;;	1150 rIdx = r0x1063 
0000e5   1283     bcf	0x3, 0x5             	BANKSEL	r0x1028
0000e6   1303     bcf	0x3, 0x6             
0000e7   00c4     movwf	0x44               	MOVWF	r0x1028
                                           ;; gen.c:2327:resultRemat *{*
                                           ;; gen.c:8685:genReceive *{*
                                           ;; ***	genReceive  8686
                                           ;;	769 register type nRegs=1
                                           ;; gen.c:1882:assignResultValue *{*
                                           ;; ***	assignResultValue  1884
                                           ;; 	line = 1886 result -=-, size=0, left AOP_REG=r0x1064, size=1, right -=-, size=0
                                           ; >>> gen.c:1459:get_returnvalue
                                           ;; ***	popRegFromIdx,1066  , rIdx=0x2e
0000e8   1283     bcf	0x3, 0x5             	BANKSEL	STK01
0000e9   1303     bcf	0x3, 0x6             
0000ea   082e     movf	0x2e, w             	MOVF	STK01,W
                                           ; >>> gen.c:1433:movwf
                                           ;;	1150 rIdx = r0x1064 
0000eb   1283     bcf	0x3, 0x5             	BANKSEL	r0x1029
0000ec   1303     bcf	0x3, 0x6             
0000ed   00c5     movwf	0x45               	MOVWF	r0x1029
                                           ;; gen.c:2327:resultRemat *{*
                                           ;; gen.c:4410:ifxForOp *{*
                                           ;; ***	ifxForOp  4412
                                           ;; gen.c:4263:genCmpLt *{*
                                           ;; ***	genCmpLt  4264
                                           ;;	769 register type nRegs=1
                                           ;; gen.c:3365:genCmp *{*
                                           ;signed compare: left < lit(0xB=11), size=1, mask=ff
                                           ;; ***	mov2w  1422  offset=0
                                           ; >>> gen.c:1427:mov2w
                                           ;;	1150 rIdx = r0x1062 
                                           	.line	174; "aquarium.c"	if (number < 11)
0000ee   0843     movf	0x43, w             	MOVF	r0x1027,W
                                           ; >>> gen.c:3489:genCmp
0000ef   3e80     addlw	0x80               	ADDLW	0x80
                                           ; >>> gen.c:3490:genCmp
0000f0   3e75     addlw	0x75               	ADDLW	0x75
                                           ;; gen.c:3215:genSkipc *{*
                                           ; >>> gen.c:3220:genSkipc
0000f1   1803     btfsc	0x3, 0             	BTFSC	STATUS,0
                                           ; >>> gen.c:3224:genSkipc
                                           ;; ***	popGetLabel  key=2, label offset 87
0000f2   28fb     goto	0xfb                	GOTO	_00189_DS_
                                           ;genSkipc:3225: created from rifx:0xbfff5a80
                                           ;; gen.c:2327:resultRemat *{*
                                           ;; gen.c:2327:resultRemat *{*
                                           ;; gen.c:2327:resultRemat *{*
                                           ;; gen.c:2327:resultRemat *{*
                                           ;; gen.c:2096:genCall *{*
                                           ;; ***	genCall  2098
                                           ;; gen.c:1781:saveRegisters *{*
                                           ;; ***	saveRegisters  1783
                                           ;;	769 register type nRegs=1
                                           ;;	769 register type nRegs=1
                                           ;;	769 register type nRegs=1
                                           ;; 	2145 left AOP_REG
                                           ;; gen.c:1390:mov2w_op *{*
                                           ;; ***	mov2w  1422  offset=0
                                           ; >>> gen.c:1427:mov2w
                                           ;;	1150 rIdx = r0x1063 
                                           	.line	175; "aquarium.c"	setLEDDiscrete(number, value);
0000f3   0844     movf	0x44, w             	MOVF	r0x1028,W
                                           ;;	769 register type nRegs=1
                                           ;; 	2145 left AOP_REG
                                           ; >>> gen.c:2153:genCall
                                           ;; ***	popRegFromIdx,1066  , rIdx=0x2f
0000f4   1283     bcf	0x3, 0x5             	BANKSEL	STK00
0000f5   1303     bcf	0x3, 0x6             
0000f6   00af     movwf	0x2f               	MOVWF	STK00
                                           ;; gen.c:1390:mov2w_op *{*
                                           ;; ***	mov2w  1422  offset=0
                                           ; >>> gen.c:1427:mov2w
                                           ;;	1150 rIdx = r0x1062 
0000f7   1283     bcf	0x3, 0x5             	BANKSEL	r0x1027
0000f8   1303     bcf	0x3, 0x6             
0000f9   0843     movf	0x43, w             	MOVF	r0x1027,W
                                           ; >>> gen.c:2184:genCall
0000fa   2114     call	0x114               	CALL	_setLEDDiscrete
                                           ;; gen.c:1825:unsaveRegisters *{*
                                           ;; ***	unsaveRegisters  1827
                                           ;; gen.c:2327:resultRemat *{*
                                           ;; gen.c:2686:genLabel *{*
                                           ;; ***	genLabel  2689
                                           ;; gen.c:2327:resultRemat *{*
                                           ;; gen.c:7965:genIfx *{*
                                           ;; ***	genIfx  7966
                                           ;;	769 register type nRegs=1
                                           ;; ***	pic14_toBoolean  1566
                                           ; >>> gen.c:1572:pic14_toBoolean
                                           _00189_DS_
                                           	.line	177; "aquarium.c"	if (mirror)
0000fb   3000     movlw	0                  	MOVLW	0x00
                                           ; >>> gen.c:1580:pic14_toBoolean
                                           ;;	1150 rIdx = r0x1064 
0000fc   1283     bcf	0x3, 0x5             	BANKSEL	r0x1029
0000fd   1303     bcf	0x3, 0x6             
0000fe   0445     iorwf	0x45, w            	IORWF	r0x1029,W
                                           ; >>> gen.c:8014:genIfx
0000ff   1903     btfsc	0x3, 0x2           	BTFSC	STATUS,2
                                           ; >>> gen.c:8015:genIfx
                                           ;; ***	popGetLabel  key=4, label offset 87
000100   2905     goto	0x105               	GOTO	_00191_DS_
                                           ;; gen.c:2327:resultRemat *{*
                                           ;; gen.c:4410:ifxForOp *{*
                                           ;; ***	ifxForOp  4412
                                           ;; NULL :(	4432
                                           ;; gen.c:8641:genDjnz *{*
                                           ;; ***	genDjnz  8642
                                           ;; genarith.c:1008:genMinus *{*
                                           ;; ***	genMinus  1009
                                           ;;	769 register type nRegs=1
                                           ;;	654
                                           ;; 	result AOP_REG, left AOP_LIT, right AOP_REG
                                           ;; ***	pic14_getDataSize  1492
                                           ;; ***	pic14_getDataSize  1492
                                           ;; left is lit	line 1126 result AOP_REG, left AOP_LIT, right AOP_REG
                                           ;; ***	mov2w  1422  offset=0
                                           ; >>> gen.c:1427:mov2w
                                           ;;	1150 rIdx = r0x1062 
                                           	.line	178; "aquarium.c"	number = 22-number;
000101   0843     movf	0x43, w             	MOVF	r0x1027,W
                                           ; >>> genarith.c:1165:genMinus
000102   3c16     sublw	0x16               	SUBLW	0x16
                                           ; >>> genarith.c:1166:genMinus
                                           ;;	1150 rIdx = r0x1062 
000103   00c3     movwf	0x43               	MOVWF	r0x1027
                                           ;; gen.c:2327:resultRemat *{*
                                           ;; gen.c:2703:genGoto *{*
                                           ; >>> gen.c:2705:genGoto
                                           ;; ***	popGetLabel  key=5, label offset 87
000104   2909     goto	0x109               	GOTO	_00192_DS_
                                           ;; gen.c:2327:resultRemat *{*
                                           ;; gen.c:2686:genLabel *{*
                                           ;; ***	genLabel  2689
                                           ;; gen.c:2327:resultRemat *{*
                                           ;; ***	genPlus  718
                                           ;; genarith.c:719:genPlus *{*
                                           ;;	769 register type nRegs=1
                                           ;;	654
                                           ;; 	line = 725 result AOP_REG=r0x1062, size=1, left AOP_REG=r0x1062, size=1, right AOP_LIT=0x0b, size=1
                                           ;; ***	pic14_getDataSize  1492
                                           ;; genarith.c:181:genPlusIncr *{*
                                           ;; ***	genPlusIncr  183
                                           ;; 	result AOP_REG, left AOP_REG, right AOP_LIT
                                           ;; 	genPlusIncr  195
                                           ;; ***	pic14_getDataSize  1492
                                           ;;	adding lit to something. size 1
                                           ;; genarith.c:399:genAddLit *{*
                                           ;; ***	genAddLit  400
                                           ;; ***	pic14_getDataSize  1492
                                           ;; ***	pic14_getDataSize  1492
                                           ;; genarith.c:362:genAddLit2byte *{*
                                           ; >>> genarith.c:374:genAddLit2byte
                                           _00191_DS_
                                           	.line	180; "aquarium.c"	number += 11;
000105   300b     movlw	0xb                	MOVLW	0x0b
                                           ; >>> genarith.c:375:genAddLit2byte
                                           ;;	1150 rIdx = r0x1062 
000106   1283     bcf	0x3, 0x5             	BANKSEL	r0x1027
000107   1303     bcf	0x3, 0x6             
000108   07c3     addwf	0x43, f            	ADDWF	r0x1027,F
                                           ;; ***	pic14_getDataSize  1492
                                           ;; ***	pic14_getDataSize  1492
                                           ;; ***	pic14_getDataSize  1492
                                           ;; ***	addSign  973
                                           ;; genarith.c:974:addSign *{*
                                           ;; gen.c:2327:resultRemat *{*
                                           ;; gen.c:2686:genLabel *{*
                                           ;; ***	genLabel  2689
                                           ;; gen.c:2327:resultRemat *{*
                                           ;; gen.c:2327:resultRemat *{*
                                           ;; gen.c:2327:resultRemat *{*
                                           ;; gen.c:2096:genCall *{*
                                           ;; ***	genCall  2098
                                           ;; gen.c:1781:saveRegisters *{*
                                           ;; ***	saveRegisters  1783
                                           ;;	769 register type nRegs=1
                                           ;;	769 register type nRegs=1
                                           ;;	769 register type nRegs=1
                                           ;; 	2145 left AOP_REG
                                           ;; gen.c:1390:mov2w_op *{*
                                           ;; ***	mov2w  1422  offset=0
                                           ; >>> gen.c:1427:mov2w
                                           ;;	1150 rIdx = r0x1063 
                                           _00192_DS_
                                           	.line	181; "aquarium.c"	setLEDDiscrete(number, value);
000109   1283     bcf	0x3, 0x5             	BANKSEL	r0x1028
00010a   1303     bcf	0x3, 0x6             
00010b   0844     movf	0x44, w             	MOVF	r0x1028,W
                                           ;;	769 register type nRegs=1
                                           ;; 	2145 left AOP_REG
                                           ; >>> gen.c:2153:genCall
                                           ;; ***	popRegFromIdx,1066  , rIdx=0x2f
00010c   1283     bcf	0x3, 0x5             	BANKSEL	STK00
00010d   1303     bcf	0x3, 0x6             
00010e   00af     movwf	0x2f               	MOVWF	STK00
                                           ;; gen.c:1390:mov2w_op *{*
                                           ;; ***	mov2w  1422  offset=0
                                           ; >>> gen.c:1427:mov2w
                                           ;;	1150 rIdx = r0x1062 
00010f   1283     bcf	0x3, 0x5             	BANKSEL	r0x1027
000110   1303     bcf	0x3, 0x6             
000111   0843     movf	0x43, w             	MOVF	r0x1027,W
                                           ; >>> gen.c:2184:genCall
000112   2114     call	0x114               	CALL	_setLEDDiscrete
                                           ;; gen.c:1825:unsaveRegisters *{*
                                           ;; ***	unsaveRegisters  1827
                                           ;; gen.c:2327:resultRemat *{*
                                           ;; gen.c:2686:genLabel *{*
                                           ;; ***	genLabel  2689
                                           ;; gen.c:2327:resultRemat *{*
                                           ;; gen.c:2524:genEndFunction *{*
                                           ;; ***	genEndFunction  2526
000113   0008     return                   	RETURN	
                                           ; exit point of _setLEDBothDiscrete
                                           ;; gen.c:8749:genpic14Code *{*
                                           
                                           ;***
                                           ;  pBlock Stats: dbName = C
                                           ;***
                                           ;entry:  _setLEDDiscrete	;Function start
                                           ; 2 exit points
                                           ;has an exit
                                           ;3 compiler assigned registers:
                                           ;   r0x102A
                                           ;   STK00
                                           ;   r0x102B
                                           ;; Starting pCode block
                                           ;; gen.c:2327:resultRemat *{*
                                           ;; gen.c:2686:genLabel *{*
                                           ;; ***	genLabel  2689
                                           ;; gen.c:2327:resultRemat *{*
                                           ;; gen.c:2372:genFunction *{*
                                           ;; ***	genFunction  2374 curr label offset=48previous max_key=0 
                                           _setLEDDiscrete	;Function start
                                           ; 2 exit points
                                           ;; gen.c:2327:resultRemat *{*
                                           ;; gen.c:8685:genReceive *{*
                                           ;; ***	genReceive  8686
                                           ;;	769 register type nRegs=1
                                           ;; gen.c:1882:assignResultValue *{*
                                           ;; ***	assignResultValue  1884
                                           ;; 	line = 1886 result -=-, size=0, left AOP_REG=r0x1060, size=1, right -=-, size=0
                                           ; >>> gen.c:1433:movwf
                                           ;;	1150 rIdx = r0x1060 
                                           	.line	95; "aquarium.c"	void setLEDDiscrete(char number, char value)
000114   1283     bcf	0x3, 0x5             	BANKSEL	r0x102A
000115   1303     bcf	0x3, 0x6             
000116   00c1     movwf	0x41               	MOVWF	r0x102A
                                           ;; gen.c:2327:resultRemat *{*
                                           ;; gen.c:8685:genReceive *{*
                                           ;; ***	genReceive  8686
                                           ;;	769 register type nRegs=1
                                           ;; gen.c:1882:assignResultValue *{*
                                           ;; ***	assignResultValue  1884
                                           ;; 	line = 1886 result -=-, size=0, left AOP_REG=r0x1061, size=1, right -=-, size=0
                                           ; >>> gen.c:1459:get_returnvalue
                                           ;; ***	popRegFromIdx,1066  , rIdx=0x2f
000117   1283     bcf	0x3, 0x5             	BANKSEL	STK00
000118   1303     bcf	0x3, 0x6             
000119   082f     movf	0x2f, w             	MOVF	STK00,W
                                           ; >>> gen.c:1433:movwf
                                           ;;	1150 rIdx = r0x1061 
00011a   1283     bcf	0x3, 0x5             	BANKSEL	r0x102B
00011b   1303     bcf	0x3, 0x6             
00011c   00c2     movwf	0x42               	MOVWF	r0x102B
                                           ;; gen.c:2327:resultRemat *{*
                                           ;; gen.c:4410:ifxForOp *{*
                                           ;; ***	ifxForOp  4412
                                           ;; gen.c:4263:genCmpLt *{*
                                           ;; ***	genCmpLt  4264
                                           ;;	769 register type nRegs=1
                                           ;; gen.c:3365:genCmp *{*
                                           ;signed compare: left < lit(0x0=0), size=1, mask=ff
                                           ; >>> gen.c:3456:genCmp
                                           	.line	97; "aquarium.c"	switch(number)
00011d   1403     bsf	0x3, 0               	BSF	STATUS,0
                                           ; >>> gen.c:3457:genCmp
00011e   1fc1     btfss	0x41, 0x7          	BTFSS	r0x102A,7
                                           ; >>> gen.c:3458:genCmp
00011f   1003     bcf	0x3, 0               	BCF	STATUS,0
                                           ;; gen.c:3215:genSkipc *{*
                                           ; >>> gen.c:3220:genSkipc
000120   1803     btfsc	0x3, 0             	BTFSC	STATUS,0
                                           ; >>> gen.c:3224:genSkipc
                                           ;; ***	popGetLabel  key=26, label offset 52
000121   2ab6     goto	0x2b6               	GOTO	_00046_DS_
                                           ;genSkipc:3225: created from rifx:0xbfff5a80
                                           ;; gen.c:2327:resultRemat *{*
                                           ;; gen.c:2327:resultRemat *{*
                                           ;; gen.c:4410:ifxForOp *{*
                                           ;; ***	ifxForOp  4412
                                           ;; gen.c:4233:genCmpGt *{*
                                           ;; ***	genCmpGt  4234
                                           ;;	769 register type nRegs=1
                                           ;; gen.c:3365:genCmp *{*
                                           ;swapping arguments (AOP_TYPEs 1/2)
                                           ;signed compare: left >= lit(0x17=23), size=1, mask=ff
                                           ;; ***	mov2w  1422  offset=0
                                           ; >>> gen.c:1427:mov2w
                                           ;;	1150 rIdx = r0x1060 
000122   0841     movf	0x41, w             	MOVF	r0x102A,W
                                           ; >>> gen.c:3489:genCmp
000123   3e80     addlw	0x80               	ADDLW	0x80
                                           ; >>> gen.c:3490:genCmp
000124   3e69     addlw	0x69               	ADDLW	0x69
                                           ;; gen.c:3215:genSkipc *{*
                                           ; >>> gen.c:3220:genSkipc
000125   1803     btfsc	0x3, 0             	BTFSC	STATUS,0
                                           ; >>> gen.c:3224:genSkipc
                                           ;; ***	popGetLabel  key=26, label offset 52
000126   2ab6     goto	0x2b6               	GOTO	_00046_DS_
                                           ;genSkipc:3225: created from rifx:0xbfff5a80
                                           ;; gen.c:2327:resultRemat *{*
                                           ;; gen.c:2327:resultRemat *{*
                                           ;; gen.c:8280:genJumpTab *{*
                                           ;; ***	genJumpTab  8281
                                           ;;	769 register type nRegs=1
                                           ; >>> gen.c:8296:genJumpTab
                                           ;; ***	popGetLabel  key=31, label offset 52
000127   3001     movlw	0x1                	MOVLW	HIGH(_00183_DS_)
                                           ; >>> gen.c:8297:genJumpTab
000128   008a     movwf	0xa                	MOVWF	PCLATH
                                           ; >>> gen.c:8298:genJumpTab
                                           ;; ***	popGetLabel  key=31, label offset 52
000129   3030     movlw	0x30               	MOVLW	_00183_DS_
                                           ; >>> gen.c:8299:genJumpTab
                                           ;;	1150 rIdx = r0x1060 
00012a   0741     addwf	0x41, w            	ADDWF	r0x102A,W
                                           ; >>> gen.c:8300:genJumpTab
00012b   1803     btfsc	0x3, 0             	BTFSC	STATUS,0
                                           ; >>> gen.c:8301:genJumpTab
00012c   0a8a     incf	0xa, f              	INCF	PCLATH,F
                                           ; >>> gen.c:8302:genJumpTab
00012d   1283     bcf	0x3, 0x5             	BANKSEL	PCL
00012e   1303     bcf	0x3, 0x6             
00012f   0082     movwf	0x2                	MOVWF	PCL
                                           ; >>> gen.c:8311:genJumpTab
                                           ;; ***	popGetLabel  key=1, label offset 52
                                           _00183_DS_
000130   2947     goto	0x147               	GOTO	_00153_DS_
                                           ; >>> gen.c:8311:genJumpTab
                                           ;; ***	popGetLabel  key=2, label offset 52
000131   2957     goto	0x157               	GOTO	_00154_DS_
                                           ; >>> gen.c:8311:genJumpTab
                                           ;; ***	popGetLabel  key=3, label offset 52
000132   2967     goto	0x167               	GOTO	_00155_DS_
                                           ; >>> gen.c:8311:genJumpTab
                                           ;; ***	popGetLabel  key=4, label offset 52
000133   2977     goto	0x177               	GOTO	_00156_DS_
                                           ; >>> gen.c:8311:genJumpTab
                                           ;; ***	popGetLabel  key=5, label offset 52
000134   2987     goto	0x187               	GOTO	_00157_DS_
                                           ; >>> gen.c:8311:genJumpTab
                                           ;; ***	popGetLabel  key=6, label offset 52
000135   2997     goto	0x197               	GOTO	_00158_DS_
                                           ; >>> gen.c:8311:genJumpTab
                                           ;; ***	popGetLabel  key=7, label offset 52
000136   29a7     goto	0x1a7               	GOTO	_00159_DS_
                                           ; >>> gen.c:8311:genJumpTab
                                           ;; ***	popGetLabel  key=8, label offset 52
000137   29b7     goto	0x1b7               	GOTO	_00160_DS_
                                           ; >>> gen.c:8311:genJumpTab
                                           ;; ***	popGetLabel  key=9, label offset 52
000138   29c7     goto	0x1c7               	GOTO	_00161_DS_
                                           ; >>> gen.c:8311:genJumpTab
                                           ;; ***	popGetLabel  key=10, label offset 52
000139   29d7     goto	0x1d7               	GOTO	_00162_DS_
                                           ; >>> gen.c:8311:genJumpTab
                                           ;; ***	popGetLabel  key=11, label offset 52
00013a   29e7     goto	0x1e7               	GOTO	_00163_DS_
                                           ; >>> gen.c:8311:genJumpTab
                                           ;; ***	popGetLabel  key=12, label offset 52
00013b   29f7     goto	0x1f7               	GOTO	_00164_DS_
                                           ; >>> gen.c:8311:genJumpTab
                                           ;; ***	popGetLabel  key=13, label offset 52
00013c   2a07     goto	0x207               	GOTO	_00165_DS_
                                           ; >>> gen.c:8311:genJumpTab
                                           ;; ***	popGetLabel  key=14, label offset 52
00013d   2a17     goto	0x217               	GOTO	_00166_DS_
                                           ; >>> gen.c:8311:genJumpTab
                                           ;; ***	popGetLabel  key=15, label offset 52
00013e   2a27     goto	0x227               	GOTO	_00167_DS_
                                           ; >>> gen.c:8311:genJumpTab
                                           ;; ***	popGetLabel  key=16, label offset 52
00013f   2a37     goto	0x237               	GOTO	_00168_DS_
                                           ; >>> gen.c:8311:genJumpTab
                                           ;; ***	popGetLabel  key=17, label offset 52
000140   2a47     goto	0x247               	GOTO	_00169_DS_
                                           ; >>> gen.c:8311:genJumpTab
                                           ;; ***	popGetLabel  key=18, label offset 52
000141   2a57     goto	0x257               	GOTO	_00170_DS_
                                           ; >>> gen.c:8311:genJumpTab
                                           ;; ***	popGetLabel  key=19, label offset 52
000142   2a67     goto	0x267               	GOTO	_00171_DS_
                                           ; >>> gen.c:8311:genJumpTab
                                           ;; ***	popGetLabel  key=20, label offset 52
000143   2a77     goto	0x277               	GOTO	_00172_DS_
                                           ; >>> gen.c:8311:genJumpTab
                                           ;; ***	popGetLabel  key=21, label offset 52
000144   2a87     goto	0x287               	GOTO	_00173_DS_
                                           ; >>> gen.c:8311:genJumpTab
                                           ;; ***	popGetLabel  key=22, label offset 52
000145   2a97     goto	0x297               	GOTO	_00174_DS_
                                           ; >>> gen.c:8311:genJumpTab
                                           ;; ***	popGetLabel  key=23, label offset 52
000146   2aa7     goto	0x2a7               	GOTO	_00175_DS_
                                           ;; gen.c:2327:resultRemat *{*
                                           ;; gen.c:2686:genLabel *{*
                                           ;; ***	genLabel  2689
                                           ;; gen.c:2327:resultRemat *{*
                                           ;; gen.c:2327:resultRemat *{*
                                           ;; gen.c:8460:genCast *{*
                                           ;; ***	genCast  8461
                                           ;;	769 register type nRegs=1
                                           ;;	769 register type nRegs=1
                                           ;; 	line = 8469 result AOP_REG=r0x1060, size=1, left -=-, size=0, right AOP_REG=r0x1061, size=1
                                           ;; ***	genCast  8575
                                           ; >>> gen.c:8595:genCast
                                           ;;	1150 rIdx = r0x1061 
                                           _00153_DS_
                                           	.line	100; "aquarium.c"	LED0 = value;
000147   1283     bcf	0x3, 0x5             	BANKSEL	r0x102B
000148   1303     bcf	0x3, 0x6             
000149   0842     movf	0x42, w             	MOVF	r0x102B,W
                                           ; >>> gen.c:8596:genCast
                                           ;;	1150 rIdx = r0x1060 
00014a   00c1     movwf	0x41               	MOVWF	r0x102A
                                           ;; gen.c:2327:resultRemat *{*
                                           ;; gen.c:7895:genPointerSet *{*
                                           ;; ***	genPointerSet  7896
                                           ;; gen.c:7723:genNearPointerSet *{*
                                           ;; ***	genNearPointerSet  7724
                                           ;;	689
                                           ;;	aopForRemat 474
                                           ;;	495: rname _PORTE_bits, val 0, const = 0
                                           ;; ***	genNearPointerSet  7741
                                           ;;	769 register type nRegs=1
                                           ;;	879: aopGet AOP_PCODE type PO_IMMEDIATE
                                           ;;	_PORTE_bits
                                           ;; 	line = 7743 result AOP_PCODE=_PORTE_bits, size=2, left -=-, size=0, right AOP_REG=r0x1060, size=1
                                           ;; gen.c:7472:genPackBits *{*
                                           ;; ***	genPackBits  7473
                                           ; >>> gen.c:7571:genPackBits
                                           ;;	1150 rIdx = r0x1060 
00014b   0c41     rrf	0x41, w              	RRF	r0x102A,W
                                           ; >>> gen.c:7572:genPackBits
00014c   1803     btfsc	0x3, 0             	BTFSC	STATUS,0
00014d   2951     goto	0x151               	GOTO	_00001_DS_
                                           ; >>> gen.c:7573:genPackBits
                                           ;;	879: aopGet AOP_PCODE type PO_IMMEDIATE
                                           ;;	_PORTE_bits
00014e   1283     bcf	0x3, 0x5             	BANKSEL	_PORTE_bits
00014f   1303     bcf	0x3, 0x6             
000150   1009     bcf	0x9, 0               	BCF	_PORTE_bits,0
                                           ; >>> gen.c:7574:genPackBits
                                           _00001_DS_
000151   1c03     btfss	0x3, 0             	BTFSS	STATUS,0
000152   2956     goto	0x156               	GOTO	_00002_DS_
                                           ; >>> gen.c:7575:genPackBits
                                           ;;	879: aopGet AOP_PCODE type PO_IMMEDIATE
                                           ;;	_PORTE_bits
000153   1283     bcf	0x3, 0x5             	BANKSEL	_PORTE_bits
000154   1303     bcf	0x3, 0x6             
000155   1409     bsf	0x9, 0               	BSF	_PORTE_bits,0
                                           ;; gen.c:2327:resultRemat *{*
                                           ;; gen.c:2703:genGoto *{*
                                           ; >>> gen.c:2705:genGoto
                                           ;; ***	popGetLabel  key=26, label offset 52
                                           _00002_DS_
                                           	.line	101; "aquarium.c"	break;
000156   2ab6     goto	0x2b6               	GOTO	_00046_DS_
                                           ;; gen.c:2327:resultRemat *{*
                                           ;; gen.c:2686:genLabel *{*
                                           ;; ***	genLabel  2689
                                           ;; gen.c:2327:resultRemat *{*
                                           ;; gen.c:2327:resultRemat *{*
                                           ;; gen.c:8460:genCast *{*
                                           ;; ***	genCast  8461
                                           ;;	769 register type nRegs=1
                                           ;;	769 register type nRegs=1
                                           ;; 	line = 8469 result AOP_REG=r0x1060, size=1, left -=-, size=0, right AOP_REG=r0x1061, size=1
                                           ;; ***	genCast  8575
                                           ; >>> gen.c:8595:genCast
                                           ;;	1150 rIdx = r0x1061 
                                           _00154_DS_
                                           	.line	103; "aquarium.c"	LED1 = value;
000157   1283     bcf	0x3, 0x5             	BANKSEL	r0x102B
000158   1303     bcf	0x3, 0x6             
000159   0842     movf	0x42, w             	MOVF	r0x102B,W
                                           ; >>> gen.c:8596:genCast
                                           ;;	1150 rIdx = r0x1060 
00015a   00c1     movwf	0x41               	MOVWF	r0x102A
                                           ;; gen.c:2327:resultRemat *{*
                                           ;; gen.c:7895:genPointerSet *{*
                                           ;; ***	genPointerSet  7896
                                           ;; gen.c:7723:genNearPointerSet *{*
                                           ;; ***	genNearPointerSet  7724
                                           ;;	689
                                           ;;	aopForRemat 474
                                           ;;	495: rname _PORTC_bits, val 0, const = 0
                                           ;; ***	genNearPointerSet  7741
                                           ;;	769 register type nRegs=1
                                           ;;	879: aopGet AOP_PCODE type PO_IMMEDIATE
                                           ;;	_PORTC_bits
                                           ;; 	line = 7743 result AOP_PCODE=_PORTC_bits, size=2, left -=-, size=0, right AOP_REG=r0x1060, size=1
                                           ;; gen.c:7472:genPackBits *{*
                                           ;; ***	genPackBits  7473
                                           ; >>> gen.c:7571:genPackBits
                                           ;;	1150 rIdx = r0x1060 
00015b   0c41     rrf	0x41, w              	RRF	r0x102A,W
                                           ; >>> gen.c:7572:genPackBits
00015c   1803     btfsc	0x3, 0             	BTFSC	STATUS,0
00015d   2961     goto	0x161               	GOTO	_00003_DS_
                                           ; >>> gen.c:7573:genPackBits
                                           ;;	879: aopGet AOP_PCODE type PO_IMMEDIATE
                                           ;;	_PORTC_bits
00015e   1283     bcf	0x3, 0x5             	BANKSEL	_PORTC_bits
00015f   1303     bcf	0x3, 0x6             
000160   1007     bcf	0x7, 0               	BCF	_PORTC_bits,0
                                           ; >>> gen.c:7574:genPackBits
                                           _00003_DS_
000161   1c03     btfss	0x3, 0             	BTFSS	STATUS,0
000162   2966     goto	0x166               	GOTO	_00004_DS_
                                           ; >>> gen.c:7575:genPackBits
                                           ;;	879: aopGet AOP_PCODE type PO_IMMEDIATE
                                           ;;	_PORTC_bits
000163   1283     bcf	0x3, 0x5             	BANKSEL	_PORTC_bits
000164   1303     bcf	0x3, 0x6             
000165   1407     bsf	0x7, 0               	BSF	_PORTC_bits,0
                                           ;; gen.c:2327:resultRemat *{*
                                           ;; gen.c:2703:genGoto *{*
                                           ; >>> gen.c:2705:genGoto
                                           ;; ***	popGetLabel  key=26, label offset 52
                                           _00004_DS_
                                           	.line	104; "aquarium.c"	break;
000166   2ab6     goto	0x2b6               	GOTO	_00046_DS_
                                           ;; gen.c:2327:resultRemat *{*
                                           ;; gen.c:2686:genLabel *{*
                                           ;; ***	genLabel  2689
                                           ;; gen.c:2327:resultRemat *{*
                                           ;; gen.c:2327:resultRemat *{*
                                           ;; gen.c:8460:genCast *{*
                                           ;; ***	genCast  8461
                                           ;;	769 register type nRegs=1
                                           ;;	769 register type nRegs=1
                                           ;; 	line = 8469 result AOP_REG=r0x1060, size=1, left -=-, size=0, right AOP_REG=r0x1061, size=1
                                           ;; ***	genCast  8575
                                           ; >>> gen.c:8595:genCast
                                           ;;	1150 rIdx = r0x1061 
                                           _00155_DS_
                                           	.line	106; "aquarium.c"	LED2 = value;
000167   1283     bcf	0x3, 0x5             	BANKSEL	r0x102B
000168   1303     bcf	0x3, 0x6             
000169   0842     movf	0x42, w             	MOVF	r0x102B,W
                                           ; >>> gen.c:8596:genCast
                                           ;;	1150 rIdx = r0x1060 
00016a   00c1     movwf	0x41               	MOVWF	r0x102A
                                           ;; gen.c:2327:resultRemat *{*
                                           ;; gen.c:7895:genPointerSet *{*
                                           ;; ***	genPointerSet  7896
                                           ;; gen.c:7723:genNearPointerSet *{*
                                           ;; ***	genNearPointerSet  7724
                                           ;;	689
                                           ;;	aopForRemat 474
                                           ;;	495: rname _PORTC_bits, val 0, const = 0
                                           ;; ***	genNearPointerSet  7741
                                           ;;	769 register type nRegs=1
                                           ;;	879: aopGet AOP_PCODE type PO_IMMEDIATE
                                           ;;	_PORTC_bits
                                           ;; 	line = 7743 result AOP_PCODE=_PORTC_bits, size=2, left -=-, size=0, right AOP_REG=r0x1060, size=1
                                           ;; gen.c:7472:genPackBits *{*
                                           ;; ***	genPackBits  7473
                                           ; >>> gen.c:7571:genPackBits
                                           ;;	1150 rIdx = r0x1060 
00016b   0c41     rrf	0x41, w              	RRF	r0x102A,W
                                           ; >>> gen.c:7572:genPackBits
00016c   1803     btfsc	0x3, 0             	BTFSC	STATUS,0
00016d   2971     goto	0x171               	GOTO	_00005_DS_
                                           ; >>> gen.c:7573:genPackBits
                                           ;;	879: aopGet AOP_PCODE type PO_IMMEDIATE
                                           ;;	_PORTC_bits
00016e   1283     bcf	0x3, 0x5             	BANKSEL	_PORTC_bits
00016f   1303     bcf	0x3, 0x6             
000170   1087     bcf	0x7, 0x1             	BCF	_PORTC_bits,1
                                           ; >>> gen.c:7574:genPackBits
                                           _00005_DS_
000171   1c03     btfss	0x3, 0             	BTFSS	STATUS,0
000172   2976     goto	0x176               	GOTO	_00006_DS_
                                           ; >>> gen.c:7575:genPackBits
                                           ;;	879: aopGet AOP_PCODE type PO_IMMEDIATE
                                           ;;	_PORTC_bits
000173   1283     bcf	0x3, 0x5             	BANKSEL	_PORTC_bits
000174   1303     bcf	0x3, 0x6             
000175   1487     bsf	0x7, 0x1             	BSF	_PORTC_bits,1
                                           ;; gen.c:2327:resultRemat *{*
                                           ;; gen.c:2703:genGoto *{*
                                           ; >>> gen.c:2705:genGoto
                                           ;; ***	popGetLabel  key=26, label offset 52
                                           _00006_DS_
                                           	.line	107; "aquarium.c"	break;
000176   2ab6     goto	0x2b6               	GOTO	_00046_DS_
                                           ;; gen.c:2327:resultRemat *{*
                                           ;; gen.c:2686:genLabel *{*
                                           ;; ***	genLabel  2689
                                           ;; gen.c:2327:resultRemat *{*
                                           ;; gen.c:2327:resultRemat *{*
                                           ;; gen.c:8460:genCast *{*
                                           ;; ***	genCast  8461
                                           ;;	769 register type nRegs=1
                                           ;;	769 register type nRegs=1
                                           ;; 	line = 8469 result AOP_REG=r0x1060, size=1, left -=-, size=0, right AOP_REG=r0x1061, size=1
                                           ;; ***	genCast  8575
                                           ; >>> gen.c:8595:genCast
                                           ;;	1150 rIdx = r0x1061 
                                           _00156_DS_
                                           	.line	109; "aquarium.c"	LED3 = value;
000177   1283     bcf	0x3, 0x5             	BANKSEL	r0x102B
000178   1303     bcf	0x3, 0x6             
000179   0842     movf	0x42, w             	MOVF	r0x102B,W
                                           ; >>> gen.c:8596:genCast
                                           ;;	1150 rIdx = r0x1060 
00017a   00c1     movwf	0x41               	MOVWF	r0x102A
                                           ;; gen.c:2327:resultRemat *{*
                                           ;; gen.c:7895:genPointerSet *{*
                                           ;; ***	genPointerSet  7896
                                           ;; gen.c:7723:genNearPointerSet *{*
                                           ;; ***	genNearPointerSet  7724
                                           ;;	689
                                           ;;	aopForRemat 474
                                           ;;	495: rname _PORTC_bits, val 0, const = 0
                                           ;; ***	genNearPointerSet  7741
                                           ;;	769 register type nRegs=1
                                           ;;	879: aopGet AOP_PCODE type PO_IMMEDIATE
                                           ;;	_PORTC_bits
                                           ;; 	line = 7743 result AOP_PCODE=_PORTC_bits, size=2, left -=-, size=0, right AOP_REG=r0x1060, size=1
                                           ;; gen.c:7472:genPackBits *{*
                                           ;; ***	genPackBits  7473
                                           ; >>> gen.c:7571:genPackBits
                                           ;;	1150 rIdx = r0x1060 
00017b   0c41     rrf	0x41, w              	RRF	r0x102A,W
                                           ; >>> gen.c:7572:genPackBits
00017c   1803     btfsc	0x3, 0             	BTFSC	STATUS,0
00017d   2981     goto	0x181               	GOTO	_00007_DS_
                                           ; >>> gen.c:7573:genPackBits
                                           ;;	879: aopGet AOP_PCODE type PO_IMMEDIATE
                                           ;;	_PORTC_bits
00017e   1283     bcf	0x3, 0x5             	BANKSEL	_PORTC_bits
00017f   1303     bcf	0x3, 0x6             
000180   1107     bcf	0x7, 0x2             	BCF	_PORTC_bits,2
                                           ; >>> gen.c:7574:genPackBits
                                           _00007_DS_
000181   1c03     btfss	0x3, 0             	BTFSS	STATUS,0
000182   2986     goto	0x186               	GOTO	_00008_DS_
                                           ; >>> gen.c:7575:genPackBits
                                           ;;	879: aopGet AOP_PCODE type PO_IMMEDIATE
                                           ;;	_PORTC_bits
000183   1283     bcf	0x3, 0x5             	BANKSEL	_PORTC_bits
000184   1303     bcf	0x3, 0x6             
000185   1507     bsf	0x7, 0x2             	BSF	_PORTC_bits,2
                                           ;; gen.c:2327:resultRemat *{*
                                           ;; gen.c:2703:genGoto *{*
                                           ; >>> gen.c:2705:genGoto
                                           ;; ***	popGetLabel  key=26, label offset 52
                                           _00008_DS_
                                           	.line	110; "aquarium.c"	break;
000186   2ab6     goto	0x2b6               	GOTO	_00046_DS_
                                           ;; gen.c:2327:resultRemat *{*
                                           ;; gen.c:2686:genLabel *{*
                                           ;; ***	genLabel  2689
                                           ;; gen.c:2327:resultRemat *{*
                                           ;; gen.c:2327:resultRemat *{*
                                           ;; gen.c:8460:genCast *{*
                                           ;; ***	genCast  8461
                                           ;;	769 register type nRegs=1
                                           ;;	769 register type nRegs=1
                                           ;; 	line = 8469 result AOP_REG=r0x1060, size=1, left -=-, size=0, right AOP_REG=r0x1061, size=1
                                           ;; ***	genCast  8575
                                           ; >>> gen.c:8595:genCast
                                           ;;	1150 rIdx = r0x1061 
                                           _00157_DS_
                                           	.line	112; "aquarium.c"	LED4 = value;
000187   1283     bcf	0x3, 0x5             	BANKSEL	r0x102B
000188   1303     bcf	0x3, 0x6             
000189   0842     movf	0x42, w             	MOVF	r0x102B,W
                                           ; >>> gen.c:8596:genCast
                                           ;;	1150 rIdx = r0x1060 
00018a   00c1     movwf	0x41               	MOVWF	r0x102A
                                           ;; gen.c:2327:resultRemat *{*
                                           ;; gen.c:7895:genPointerSet *{*
                                           ;; ***	genPointerSet  7896
                                           ;; gen.c:7723:genNearPointerSet *{*
                                           ;; ***	genNearPointerSet  7724
                                           ;;	689
                                           ;;	aopForRemat 474
                                           ;;	495: rname _PORTC_bits, val 0, const = 0
                                           ;; ***	genNearPointerSet  7741
                                           ;;	769 register type nRegs=1
                                           ;;	879: aopGet AOP_PCODE type PO_IMMEDIATE
                                           ;;	_PORTC_bits
                                           ;; 	line = 7743 result AOP_PCODE=_PORTC_bits, size=2, left -=-, size=0, right AOP_REG=r0x1060, size=1
                                           ;; gen.c:7472:genPackBits *{*
                                           ;; ***	genPackBits  7473
                                           ; >>> gen.c:7571:genPackBits
                                           ;;	1150 rIdx = r0x1060 
00018b   0c41     rrf	0x41, w              	RRF	r0x102A,W
                                           ; >>> gen.c:7572:genPackBits
00018c   1803     btfsc	0x3, 0             	BTFSC	STATUS,0
00018d   2991     goto	0x191               	GOTO	_00009_DS_
                                           ; >>> gen.c:7573:genPackBits
                                           ;;	879: aopGet AOP_PCODE type PO_IMMEDIATE
                                           ;;	_PORTC_bits
00018e   1283     bcf	0x3, 0x5             	BANKSEL	_PORTC_bits
00018f   1303     bcf	0x3, 0x6             
000190   1187     bcf	0x7, 0x3             	BCF	_PORTC_bits,3
                                           ; >>> gen.c:7574:genPackBits
                                           _00009_DS_
000191   1c03     btfss	0x3, 0             	BTFSS	STATUS,0
000192   2996     goto	0x196               	GOTO	_00010_DS_
                                           ; >>> gen.c:7575:genPackBits
                                           ;;	879: aopGet AOP_PCODE type PO_IMMEDIATE
                                           ;;	_PORTC_bits
000193   1283     bcf	0x3, 0x5             	BANKSEL	_PORTC_bits
000194   1303     bcf	0x3, 0x6             
000195   1587     bsf	0x7, 0x3             	BSF	_PORTC_bits,3
                                           ;; gen.c:2327:resultRemat *{*
                                           ;; gen.c:2703:genGoto *{*
                                           ; >>> gen.c:2705:genGoto
                                           ;; ***	popGetLabel  key=26, label offset 52
                                           _00010_DS_
                                           	.line	113; "aquarium.c"	break;
000196   2ab6     goto	0x2b6               	GOTO	_00046_DS_
                                           ;; gen.c:2327:resultRemat *{*
                                           ;; gen.c:2686:genLabel *{*
                                           ;; ***	genLabel  2689
                                           ;; gen.c:2327:resultRemat *{*
                                           ;; gen.c:2327:resultRemat *{*
                                           ;; gen.c:8460:genCast *{*
                                           ;; ***	genCast  8461
                                           ;;	769 register type nRegs=1
                                           ;;	769 register type nRegs=1
                                           ;; 	line = 8469 result AOP_REG=r0x1060, size=1, left -=-, size=0, right AOP_REG=r0x1061, size=1
                                           ;; ***	genCast  8575
                                           ; >>> gen.c:8595:genCast
                                           ;;	1150 rIdx = r0x1061 
                                           _00158_DS_
                                           	.line	115; "aquarium.c"	LED5 = value;
000197   1283     bcf	0x3, 0x5             	BANKSEL	r0x102B
000198   1303     bcf	0x3, 0x6             
000199   0842     movf	0x42, w             	MOVF	r0x102B,W
                                           ; >>> gen.c:8596:genCast
                                           ;;	1150 rIdx = r0x1060 
00019a   00c1     movwf	0x41               	MOVWF	r0x102A
                                           ;; gen.c:2327:resultRemat *{*
                                           ;; gen.c:7895:genPointerSet *{*
                                           ;; ***	genPointerSet  7896
                                           ;; gen.c:7723:genNearPointerSet *{*
                                           ;; ***	genNearPointerSet  7724
                                           ;;	689
                                           ;;	aopForRemat 474
                                           ;;	495: rname _PORTC_bits, val 0, const = 0
                                           ;; ***	genNearPointerSet  7741
                                           ;;	769 register type nRegs=1
                                           ;;	879: aopGet AOP_PCODE type PO_IMMEDIATE
                                           ;;	_PORTC_bits
                                           ;; 	line = 7743 result AOP_PCODE=_PORTC_bits, size=2, left -=-, size=0, right AOP_REG=r0x1060, size=1
                                           ;; gen.c:7472:genPackBits *{*
                                           ;; ***	genPackBits  7473
                                           ; >>> gen.c:7571:genPackBits
                                           ;;	1150 rIdx = r0x1060 
00019b   0c41     rrf	0x41, w              	RRF	r0x102A,W
                                           ; >>> gen.c:7572:genPackBits
00019c   1803     btfsc	0x3, 0             	BTFSC	STATUS,0
00019d   29a1     goto	0x1a1               	GOTO	_00011_DS_
                                           ; >>> gen.c:7573:genPackBits
                                           ;;	879: aopGet AOP_PCODE type PO_IMMEDIATE
                                           ;;	_PORTC_bits
00019e   1283     bcf	0x3, 0x5             	BANKSEL	_PORTC_bits
00019f   1303     bcf	0x3, 0x6             
0001a0   1207     bcf	0x7, 0x4             	BCF	_PORTC_bits,4
                                           ; >>> gen.c:7574:genPackBits
                                           _00011_DS_
0001a1   1c03     btfss	0x3, 0             	BTFSS	STATUS,0
0001a2   29a6     goto	0x1a6               	GOTO	_00012_DS_
                                           ; >>> gen.c:7575:genPackBits
                                           ;;	879: aopGet AOP_PCODE type PO_IMMEDIATE
                                           ;;	_PORTC_bits
0001a3   1283     bcf	0x3, 0x5             	BANKSEL	_PORTC_bits
0001a4   1303     bcf	0x3, 0x6             
0001a5   1607     bsf	0x7, 0x4             	BSF	_PORTC_bits,4
                                           ;; gen.c:2327:resultRemat *{*
                                           ;; gen.c:2703:genGoto *{*
                                           ; >>> gen.c:2705:genGoto
                                           ;; ***	popGetLabel  key=26, label offset 52
                                           _00012_DS_
                                           	.line	116; "aquarium.c"	break;
0001a6   2ab6     goto	0x2b6               	GOTO	_00046_DS_
                                           ;; gen.c:2327:resultRemat *{*
                                           ;; gen.c:2686:genLabel *{*
                                           ;; ***	genLabel  2689
                                           ;; gen.c:2327:resultRemat *{*
                                           ;; gen.c:2327:resultRemat *{*
                                           ;; gen.c:8460:genCast *{*
                                           ;; ***	genCast  8461
                                           ;;	769 register type nRegs=1
                                           ;;	769 register type nRegs=1
                                           ;; 	line = 8469 result AOP_REG=r0x1060, size=1, left -=-, size=0, right AOP_REG=r0x1061, size=1
                                           ;; ***	genCast  8575
                                           ; >>> gen.c:8595:genCast
                                           ;;	1150 rIdx = r0x1061 
                                           _00159_DS_
                                           	.line	118; "aquarium.c"	LED6 = value;
0001a7   1283     bcf	0x3, 0x5             	BANKSEL	r0x102B
0001a8   1303     bcf	0x3, 0x6             
0001a9   0842     movf	0x42, w             	MOVF	r0x102B,W
                                           ; >>> gen.c:8596:genCast
                                           ;;	1150 rIdx = r0x1060 
0001aa   00c1     movwf	0x41               	MOVWF	r0x102A
                                           ;; gen.c:2327:resultRemat *{*
                                           ;; gen.c:7895:genPointerSet *{*
                                           ;; ***	genPointerSet  7896
                                           ;; gen.c:7723:genNearPointerSet *{*
                                           ;; ***	genNearPointerSet  7724
                                           ;;	689
                                           ;;	aopForRemat 474
                                           ;;	495: rname _PORTC_bits, val 0, const = 0
                                           ;; ***	genNearPointerSet  7741
                                           ;;	769 register type nRegs=1
                                           ;;	879: aopGet AOP_PCODE type PO_IMMEDIATE
                                           ;;	_PORTC_bits
                                           ;; 	line = 7743 result AOP_PCODE=_PORTC_bits, size=2, left -=-, size=0, right AOP_REG=r0x1060, size=1
                                           ;; gen.c:7472:genPackBits *{*
                                           ;; ***	genPackBits  7473
                                           ; >>> gen.c:7571:genPackBits
                                           ;;	1150 rIdx = r0x1060 
0001ab   0c41     rrf	0x41, w              	RRF	r0x102A,W
                                           ; >>> gen.c:7572:genPackBits
0001ac   1803     btfsc	0x3, 0             	BTFSC	STATUS,0
0001ad   29b1     goto	0x1b1               	GOTO	_00013_DS_
                                           ; >>> gen.c:7573:genPackBits
                                           ;;	879: aopGet AOP_PCODE type PO_IMMEDIATE
                                           ;;	_PORTC_bits
0001ae   1283     bcf	0x3, 0x5             	BANKSEL	_PORTC_bits
0001af   1303     bcf	0x3, 0x6             
0001b0   1287     bcf	0x7, 0x5             	BCF	_PORTC_bits,5
                                           ; >>> gen.c:7574:genPackBits
                                           _00013_DS_
0001b1   1c03     btfss	0x3, 0             	BTFSS	STATUS,0
0001b2   29b6     goto	0x1b6               	GOTO	_00014_DS_
                                           ; >>> gen.c:7575:genPackBits
                                           ;;	879: aopGet AOP_PCODE type PO_IMMEDIATE
                                           ;;	_PORTC_bits
0001b3   1283     bcf	0x3, 0x5             	BANKSEL	_PORTC_bits
0001b4   1303     bcf	0x3, 0x6             
0001b5   1687     bsf	0x7, 0x5             	BSF	_PORTC_bits,5
                                           ;; gen.c:2327:resultRemat *{*
                                           ;; gen.c:2703:genGoto *{*
                                           ; >>> gen.c:2705:genGoto
                                           ;; ***	popGetLabel  key=26, label offset 52
                                           _00014_DS_
                                           	.line	119; "aquarium.c"	break;
0001b6   2ab6     goto	0x2b6               	GOTO	_00046_DS_
                                           ;; gen.c:2327:resultRemat *{*
                                           ;; gen.c:2686:genLabel *{*
                                           ;; ***	genLabel  2689
                                           ;; gen.c:2327:resultRemat *{*
                                           ;; gen.c:2327:resultRemat *{*
                                           ;; gen.c:8460:genCast *{*
                                           ;; ***	genCast  8461
                                           ;;	769 register type nRegs=1
                                           ;;	769 register type nRegs=1
                                           ;; 	line = 8469 result AOP_REG=r0x1060, size=1, left -=-, size=0, right AOP_REG=r0x1061, size=1
                                           ;; ***	genCast  8575
                                           ; >>> gen.c:8595:genCast
                                           ;;	1150 rIdx = r0x1061 
                                           _00160_DS_
                                           	.line	121; "aquarium.c"	LED7 = value;
0001b7   1283     bcf	0x3, 0x5             	BANKSEL	r0x102B
0001b8   1303     bcf	0x3, 0x6             
0001b9   0842     movf	0x42, w             	MOVF	r0x102B,W
                                           ; >>> gen.c:8596:genCast
                                           ;;	1150 rIdx = r0x1060 
0001ba   00c1     movwf	0x41               	MOVWF	r0x102A
                                           ;; gen.c:2327:resultRemat *{*
                                           ;; gen.c:7895:genPointerSet *{*
                                           ;; ***	genPointerSet  7896
                                           ;; gen.c:7723:genNearPointerSet *{*
                                           ;; ***	genNearPointerSet  7724
                                           ;;	689
                                           ;;	aopForRemat 474
                                           ;;	495: rname _PORTC_bits, val 0, const = 0
                                           ;; ***	genNearPointerSet  7741
                                           ;;	769 register type nRegs=1
                                           ;;	879: aopGet AOP_PCODE type PO_IMMEDIATE
                                           ;;	_PORTC_bits
                                           ;; 	line = 7743 result AOP_PCODE=_PORTC_bits, size=2, left -=-, size=0, right AOP_REG=r0x1060, size=1
                                           ;; gen.c:7472:genPackBits *{*
                                           ;; ***	genPackBits  7473
                                           ; >>> gen.c:7571:genPackBits
                                           ;;	1150 rIdx = r0x1060 
0001bb   0c41     rrf	0x41, w              	RRF	r0x102A,W
                                           ; >>> gen.c:7572:genPackBits
0001bc   1803     btfsc	0x3, 0             	BTFSC	STATUS,0
0001bd   29c1     goto	0x1c1               	GOTO	_00015_DS_
                                           ; >>> gen.c:7573:genPackBits
                                           ;;	879: aopGet AOP_PCODE type PO_IMMEDIATE
                                           ;;	_PORTC_bits
0001be   1283     bcf	0x3, 0x5             	BANKSEL	_PORTC_bits
0001bf   1303     bcf	0x3, 0x6             
0001c0   1307     bcf	0x7, 0x6             	BCF	_PORTC_bits,6
                                           ; >>> gen.c:7574:genPackBits
                                           _00015_DS_
0001c1   1c03     btfss	0x3, 0             	BTFSS	STATUS,0
0001c2   29c6     goto	0x1c6               	GOTO	_00016_DS_
                                           ; >>> gen.c:7575:genPackBits
                                           ;;	879: aopGet AOP_PCODE type PO_IMMEDIATE
                                           ;;	_PORTC_bits
0001c3   1283     bcf	0x3, 0x5             	BANKSEL	_PORTC_bits
0001c4   1303     bcf	0x3, 0x6             
0001c5   1707     bsf	0x7, 0x6             	BSF	_PORTC_bits,6
                                           ;; gen.c:2327:resultRemat *{*
                                           ;; gen.c:2703:genGoto *{*
                                           ; >>> gen.c:2705:genGoto
                                           ;; ***	popGetLabel  key=26, label offset 52
                                           _00016_DS_
                                           	.line	122; "aquarium.c"	break;
0001c6   2ab6     goto	0x2b6               	GOTO	_00046_DS_
                                           ;; gen.c:2327:resultRemat *{*
                                           ;; gen.c:2686:genLabel *{*
                                           ;; ***	genLabel  2689
                                           ;; gen.c:2327:resultRemat *{*
                                           ;; gen.c:2327:resultRemat *{*
                                           ;; gen.c:8460:genCast *{*
                                           ;; ***	genCast  8461
                                           ;;	769 register type nRegs=1
                                           ;;	769 register type nRegs=1
                                           ;; 	line = 8469 result AOP_REG=r0x1060, size=1, left -=-, size=0, right AOP_REG=r0x1061, size=1
                                           ;; ***	genCast  8575
                                           ; >>> gen.c:8595:genCast
                                           ;;	1150 rIdx = r0x1061 
                                           _00161_DS_
                                           	.line	124; "aquarium.c"	LED8 = value;
0001c7   1283     bcf	0x3, 0x5             	BANKSEL	r0x102B
0001c8   1303     bcf	0x3, 0x6             
0001c9   0842     movf	0x42, w             	MOVF	r0x102B,W
                                           ; >>> gen.c:8596:genCast
                                           ;;	1150 rIdx = r0x1060 
0001ca   00c1     movwf	0x41               	MOVWF	r0x102A
                                           ;; gen.c:2327:resultRemat *{*
                                           ;; gen.c:7895:genPointerSet *{*
                                           ;; ***	genPointerSet  7896
                                           ;; gen.c:7723:genNearPointerSet *{*
                                           ;; ***	genNearPointerSet  7724
                                           ;;	689
                                           ;;	aopForRemat 474
                                           ;;	495: rname _PORTC_bits, val 0, const = 0
                                           ;; ***	genNearPointerSet  7741
                                           ;;	769 register type nRegs=1
                                           ;;	879: aopGet AOP_PCODE type PO_IMMEDIATE
                                           ;;	_PORTC_bits
                                           ;; 	line = 7743 result AOP_PCODE=_PORTC_bits, size=2, left -=-, size=0, right AOP_REG=r0x1060, size=1
                                           ;; gen.c:7472:genPackBits *{*
                                           ;; ***	genPackBits  7473
                                           ; >>> gen.c:7571:genPackBits
                                           ;;	1150 rIdx = r0x1060 
0001cb   0c41     rrf	0x41, w              	RRF	r0x102A,W
                                           ; >>> gen.c:7572:genPackBits
0001cc   1803     btfsc	0x3, 0             	BTFSC	STATUS,0
0001cd   29d1     goto	0x1d1               	GOTO	_00017_DS_
                                           ; >>> gen.c:7573:genPackBits
                                           ;;	879: aopGet AOP_PCODE type PO_IMMEDIATE
                                           ;;	_PORTC_bits
0001ce   1283     bcf	0x3, 0x5             	BANKSEL	_PORTC_bits
0001cf   1303     bcf	0x3, 0x6             
0001d0   1387     bcf	0x7, 0x7             	BCF	_PORTC_bits,7
                                           ; >>> gen.c:7574:genPackBits
                                           _00017_DS_
0001d1   1c03     btfss	0x3, 0             	BTFSS	STATUS,0
0001d2   29d6     goto	0x1d6               	GOTO	_00018_DS_
                                           ; >>> gen.c:7575:genPackBits
                                           ;;	879: aopGet AOP_PCODE type PO_IMMEDIATE
                                           ;;	_PORTC_bits
0001d3   1283     bcf	0x3, 0x5             	BANKSEL	_PORTC_bits
0001d4   1303     bcf	0x3, 0x6             
0001d5   1787     bsf	0x7, 0x7             	BSF	_PORTC_bits,7
                                           ;; gen.c:2327:resultRemat *{*
                                           ;; gen.c:2703:genGoto *{*
                                           ; >>> gen.c:2705:genGoto
                                           ;; ***	popGetLabel  key=26, label offset 52
                                           _00018_DS_
                                           	.line	125; "aquarium.c"	break;
0001d6   2ab6     goto	0x2b6               	GOTO	_00046_DS_
                                           ;; gen.c:2327:resultRemat *{*
                                           ;; gen.c:2686:genLabel *{*
                                           ;; ***	genLabel  2689
                                           ;; gen.c:2327:resultRemat *{*
                                           ;; gen.c:2327:resultRemat *{*
                                           ;; gen.c:8460:genCast *{*
                                           ;; ***	genCast  8461
                                           ;;	769 register type nRegs=1
                                           ;;	769 register type nRegs=1
                                           ;; 	line = 8469 result AOP_REG=r0x1060, size=1, left -=-, size=0, right AOP_REG=r0x1061, size=1
                                           ;; ***	genCast  8575
                                           ; >>> gen.c:8595:genCast
                                           ;;	1150 rIdx = r0x1061 
                                           _00162_DS_
                                           	.line	127; "aquarium.c"	LED9 = value;
0001d7   1283     bcf	0x3, 0x5             	BANKSEL	r0x102B
0001d8   1303     bcf	0x3, 0x6             
0001d9   0842     movf	0x42, w             	MOVF	r0x102B,W
                                           ; >>> gen.c:8596:genCast
                                           ;;	1150 rIdx = r0x1060 
0001da   00c1     movwf	0x41               	MOVWF	r0x102A
                                           ;; gen.c:2327:resultRemat *{*
                                           ;; gen.c:7895:genPointerSet *{*
                                           ;; ***	genPointerSet  7896
                                           ;; gen.c:7723:genNearPointerSet *{*
                                           ;; ***	genNearPointerSet  7724
                                           ;;	689
                                           ;;	aopForRemat 474
                                           ;;	495: rname _PORTD_bits, val 0, const = 0
                                           ;; ***	genNearPointerSet  7741
                                           ;;	769 register type nRegs=1
                                           ;;	879: aopGet AOP_PCODE type PO_IMMEDIATE
                                           ;;	_PORTD_bits
                                           ;; 	line = 7743 result AOP_PCODE=_PORTD_bits, size=2, left -=-, size=0, right AOP_REG=r0x1060, size=1
                                           ;; gen.c:7472:genPackBits *{*
                                           ;; ***	genPackBits  7473
                                           ; >>> gen.c:7571:genPackBits
                                           ;;	1150 rIdx = r0x1060 
0001db   0c41     rrf	0x41, w              	RRF	r0x102A,W
                                           ; >>> gen.c:7572:genPackBits
0001dc   1803     btfsc	0x3, 0             	BTFSC	STATUS,0
0001dd   29e1     goto	0x1e1               	GOTO	_00019_DS_
                                           ; >>> gen.c:7573:genPackBits
                                           ;;	879: aopGet AOP_PCODE type PO_IMMEDIATE
                                           ;;	_PORTD_bits
0001de   1283     bcf	0x3, 0x5             	BANKSEL	_PORTD_bits
0001df   1303     bcf	0x3, 0x6             
0001e0   1008     bcf	0x8, 0               	BCF	_PORTD_bits,0
                                           ; >>> gen.c:7574:genPackBits
                                           _00019_DS_
0001e1   1c03     btfss	0x3, 0             	BTFSS	STATUS,0
0001e2   29e6     goto	0x1e6               	GOTO	_00020_DS_
                                           ; >>> gen.c:7575:genPackBits
                                           ;;	879: aopGet AOP_PCODE type PO_IMMEDIATE
                                           ;;	_PORTD_bits
0001e3   1283     bcf	0x3, 0x5             	BANKSEL	_PORTD_bits
0001e4   1303     bcf	0x3, 0x6             
0001e5   1408     bsf	0x8, 0               	BSF	_PORTD_bits,0
                                           ;; gen.c:2327:resultRemat *{*
                                           ;; gen.c:2703:genGoto *{*
                                           ; >>> gen.c:2705:genGoto
                                           ;; ***	popGetLabel  key=26, label offset 52
                                           _00020_DS_
                                           	.line	128; "aquarium.c"	break;
0001e6   2ab6     goto	0x2b6               	GOTO	_00046_DS_
                                           ;; gen.c:2327:resultRemat *{*
                                           ;; gen.c:2686:genLabel *{*
                                           ;; ***	genLabel  2689
                                           ;; gen.c:2327:resultRemat *{*
                                           ;; gen.c:2327:resultRemat *{*
                                           ;; gen.c:8460:genCast *{*
                                           ;; ***	genCast  8461
                                           ;;	769 register type nRegs=1
                                           ;;	769 register type nRegs=1
                                           ;; 	line = 8469 result AOP_REG=r0x1060, size=1, left -=-, size=0, right AOP_REG=r0x1061, size=1
                                           ;; ***	genCast  8575
                                           ; >>> gen.c:8595:genCast
                                           ;;	1150 rIdx = r0x1061 
                                           _00163_DS_
                                           	.line	130; "aquarium.c"	LED10 = value;
0001e7   1283     bcf	0x3, 0x5             	BANKSEL	r0x102B
0001e8   1303     bcf	0x3, 0x6             
0001e9   0842     movf	0x42, w             	MOVF	r0x102B,W
                                           ; >>> gen.c:8596:genCast
                                           ;;	1150 rIdx = r0x1060 
0001ea   00c1     movwf	0x41               	MOVWF	r0x102A
                                           ;; gen.c:2327:resultRemat *{*
                                           ;; gen.c:7895:genPointerSet *{*
                                           ;; ***	genPointerSet  7896
                                           ;; gen.c:7723:genNearPointerSet *{*
                                           ;; ***	genNearPointerSet  7724
                                           ;;	689
                                           ;;	aopForRemat 474
                                           ;;	495: rname _PORTD_bits, val 0, const = 0
                                           ;; ***	genNearPointerSet  7741
                                           ;;	769 register type nRegs=1
                                           ;;	879: aopGet AOP_PCODE type PO_IMMEDIATE
                                           ;;	_PORTD_bits
                                           ;; 	line = 7743 result AOP_PCODE=_PORTD_bits, size=2, left -=-, size=0, right AOP_REG=r0x1060, size=1
                                           ;; gen.c:7472:genPackBits *{*
                                           ;; ***	genPackBits  7473
                                           ; >>> gen.c:7571:genPackBits
                                           ;;	1150 rIdx = r0x1060 
0001eb   0c41     rrf	0x41, w              	RRF	r0x102A,W
                                           ; >>> gen.c:7572:genPackBits
0001ec   1803     btfsc	0x3, 0             	BTFSC	STATUS,0
0001ed   29f1     goto	0x1f1               	GOTO	_00021_DS_
                                           ; >>> gen.c:7573:genPackBits
                                           ;;	879: aopGet AOP_PCODE type PO_IMMEDIATE
                                           ;;	_PORTD_bits
0001ee   1283     bcf	0x3, 0x5             	BANKSEL	_PORTD_bits
0001ef   1303     bcf	0x3, 0x6             
0001f0   1088     bcf	0x8, 0x1             	BCF	_PORTD_bits,1
                                           ; >>> gen.c:7574:genPackBits
                                           _00021_DS_
0001f1   1c03     btfss	0x3, 0             	BTFSS	STATUS,0
0001f2   29f6     goto	0x1f6               	GOTO	_00022_DS_
                                           ; >>> gen.c:7575:genPackBits
                                           ;;	879: aopGet AOP_PCODE type PO_IMMEDIATE
                                           ;;	_PORTD_bits
0001f3   1283     bcf	0x3, 0x5             	BANKSEL	_PORTD_bits
0001f4   1303     bcf	0x3, 0x6             
0001f5   1488     bsf	0x8, 0x1             	BSF	_PORTD_bits,1
                                           ;; gen.c:2327:resultRemat *{*
                                           ;; gen.c:2703:genGoto *{*
                                           ; >>> gen.c:2705:genGoto
                                           ;; ***	popGetLabel  key=26, label offset 52
                                           _00022_DS_
                                           	.line	131; "aquarium.c"	break;
0001f6   2ab6     goto	0x2b6               	GOTO	_00046_DS_
                                           ;; gen.c:2327:resultRemat *{*
                                           ;; gen.c:2686:genLabel *{*
                                           ;; ***	genLabel  2689
                                           ;; gen.c:2327:resultRemat *{*
                                           ;; gen.c:2327:resultRemat *{*
                                           ;; gen.c:8460:genCast *{*
                                           ;; ***	genCast  8461
                                           ;;	769 register type nRegs=1
                                           ;;	769 register type nRegs=1
                                           ;; 	line = 8469 result AOP_REG=r0x1060, size=1, left -=-, size=0, right AOP_REG=r0x1061, size=1
                                           ;; ***	genCast  8575
                                           ; >>> gen.c:8595:genCast
                                           ;;	1150 rIdx = r0x1061 
                                           _00164_DS_
                                           	.line	133; "aquarium.c"	LED11 = value;
0001f7   1283     bcf	0x3, 0x5             	BANKSEL	r0x102B
0001f8   1303     bcf	0x3, 0x6             
0001f9   0842     movf	0x42, w             	MOVF	r0x102B,W
                                           ; >>> gen.c:8596:genCast
                                           ;;	1150 rIdx = r0x1060 
0001fa   00c1     movwf	0x41               	MOVWF	r0x102A
                                           ;; gen.c:2327:resultRemat *{*
                                           ;; gen.c:7895:genPointerSet *{*
                                           ;; ***	genPointerSet  7896
                                           ;; gen.c:7723:genNearPointerSet *{*
                                           ;; ***	genNearPointerSet  7724
                                           ;;	689
                                           ;;	aopForRemat 474
                                           ;;	495: rname _PORTD_bits, val 0, const = 0
                                           ;; ***	genNearPointerSet  7741
                                           ;;	769 register type nRegs=1
                                           ;;	879: aopGet AOP_PCODE type PO_IMMEDIATE
                                           ;;	_PORTD_bits
                                           ;; 	line = 7743 result AOP_PCODE=_PORTD_bits, size=2, left -=-, size=0, right AOP_REG=r0x1060, size=1
                                           ;; gen.c:7472:genPackBits *{*
                                           ;; ***	genPackBits  7473
                                           ; >>> gen.c:7571:genPackBits
                                           ;;	1150 rIdx = r0x1060 
0001fb   0c41     rrf	0x41, w              	RRF	r0x102A,W
                                           ; >>> gen.c:7572:genPackBits
0001fc   1803     btfsc	0x3, 0             	BTFSC	STATUS,0
0001fd   2a01     goto	0x201               	GOTO	_00023_DS_
                                           ; >>> gen.c:7573:genPackBits
                                           ;;	879: aopGet AOP_PCODE type PO_IMMEDIATE
                                           ;;	_PORTD_bits
0001fe   1283     bcf	0x3, 0x5             	BANKSEL	_PORTD_bits
0001ff   1303     bcf	0x3, 0x6             
000200   1108     bcf	0x8, 0x2             	BCF	_PORTD_bits,2
                                           ; >>> gen.c:7574:genPackBits
                                           _00023_DS_
000201   1c03     btfss	0x3, 0             	BTFSS	STATUS,0
000202   2a06     goto	0x206               	GOTO	_00024_DS_
                                           ; >>> gen.c:7575:genPackBits
                                           ;;	879: aopGet AOP_PCODE type PO_IMMEDIATE
                                           ;;	_PORTD_bits
000203   1283     bcf	0x3, 0x5             	BANKSEL	_PORTD_bits
000204   1303     bcf	0x3, 0x6             
000205   1508     bsf	0x8, 0x2             	BSF	_PORTD_bits,2
                                           ;; gen.c:2327:resultRemat *{*
                                           ;; gen.c:2703:genGoto *{*
                                           ; >>> gen.c:2705:genGoto
                                           ;; ***	popGetLabel  key=26, label offset 52
                                           _00024_DS_
                                           	.line	134; "aquarium.c"	break;
000206   2ab6     goto	0x2b6               	GOTO	_00046_DS_
                                           ;; gen.c:2327:resultRemat *{*
                                           ;; gen.c:2686:genLabel *{*
                                           ;; ***	genLabel  2689
                                           ;; gen.c:2327:resultRemat *{*
                                           ;; gen.c:2327:resultRemat *{*
                                           ;; gen.c:8460:genCast *{*
                                           ;; ***	genCast  8461
                                           ;;	769 register type nRegs=1
                                           ;;	769 register type nRegs=1
                                           ;; 	line = 8469 result AOP_REG=r0x1060, size=1, left -=-, size=0, right AOP_REG=r0x1061, size=1
                                           ;; ***	genCast  8575
                                           ; >>> gen.c:8595:genCast
                                           ;;	1150 rIdx = r0x1061 
                                           _00165_DS_
                                           	.line	136; "aquarium.c"	LED12 = value;
000207   1283     bcf	0x3, 0x5             	BANKSEL	r0x102B
000208   1303     bcf	0x3, 0x6             
000209   0842     movf	0x42, w             	MOVF	r0x102B,W
                                           ; >>> gen.c:8596:genCast
                                           ;;	1150 rIdx = r0x1060 
00020a   00c1     movwf	0x41               	MOVWF	r0x102A
                                           ;; gen.c:2327:resultRemat *{*
                                           ;; gen.c:7895:genPointerSet *{*
                                           ;; ***	genPointerSet  7896
                                           ;; gen.c:7723:genNearPointerSet *{*
                                           ;; ***	genNearPointerSet  7724
                                           ;;	689
                                           ;;	aopForRemat 474
                                           ;;	495: rname _PORTD_bits, val 0, const = 0
                                           ;; ***	genNearPointerSet  7741
                                           ;;	769 register type nRegs=1
                                           ;;	879: aopGet AOP_PCODE type PO_IMMEDIATE
                                           ;;	_PORTD_bits
                                           ;; 	line = 7743 result AOP_PCODE=_PORTD_bits, size=2, left -=-, size=0, right AOP_REG=r0x1060, size=1
                                           ;; gen.c:7472:genPackBits *{*
                                           ;; ***	genPackBits  7473
                                           ; >>> gen.c:7571:genPackBits
                                           ;;	1150 rIdx = r0x1060 
00020b   0c41     rrf	0x41, w              	RRF	r0x102A,W
                                           ; >>> gen.c:7572:genPackBits
00020c   1803     btfsc	0x3, 0             	BTFSC	STATUS,0
00020d   2a11     goto	0x211               	GOTO	_00025_DS_
                                           ; >>> gen.c:7573:genPackBits
                                           ;;	879: aopGet AOP_PCODE type PO_IMMEDIATE
                                           ;;	_PORTD_bits
00020e   1283     bcf	0x3, 0x5             	BANKSEL	_PORTD_bits
00020f   1303     bcf	0x3, 0x6             
000210   1188     bcf	0x8, 0x3             	BCF	_PORTD_bits,3
                                           ; >>> gen.c:7574:genPackBits
                                           _00025_DS_
000211   1c03     btfss	0x3, 0             	BTFSS	STATUS,0
000212   2a16     goto	0x216               	GOTO	_00026_DS_
                                           ; >>> gen.c:7575:genPackBits
                                           ;;	879: aopGet AOP_PCODE type PO_IMMEDIATE
                                           ;;	_PORTD_bits
000213   1283     bcf	0x3, 0x5             	BANKSEL	_PORTD_bits
000214   1303     bcf	0x3, 0x6             
000215   1588     bsf	0x8, 0x3             	BSF	_PORTD_bits,3
                                           ;; gen.c:2327:resultRemat *{*
                                           ;; gen.c:2703:genGoto *{*
                                           ; >>> gen.c:2705:genGoto
                                           ;; ***	popGetLabel  key=26, label offset 52
                                           _00026_DS_
                                           	.line	137; "aquarium.c"	break;
000216   2ab6     goto	0x2b6               	GOTO	_00046_DS_
                                           ;; gen.c:2327:resultRemat *{*
                                           ;; gen.c:2686:genLabel *{*
                                           ;; ***	genLabel  2689
                                           ;; gen.c:2327:resultRemat *{*
                                           ;; gen.c:2327:resultRemat *{*
                                           ;; gen.c:8460:genCast *{*
                                           ;; ***	genCast  8461
                                           ;;	769 register type nRegs=1
                                           ;;	769 register type nRegs=1
                                           ;; 	line = 8469 result AOP_REG=r0x1060, size=1, left -=-, size=0, right AOP_REG=r0x1061, size=1
                                           ;; ***	genCast  8575
                                           ; >>> gen.c:8595:genCast
                                           ;;	1150 rIdx = r0x1061 
                                           _00166_DS_
                                           	.line	139; "aquarium.c"	LED13 = value;
000217   1283     bcf	0x3, 0x5             	BANKSEL	r0x102B
000218   1303     bcf	0x3, 0x6             
000219   0842     movf	0x42, w             	MOVF	r0x102B,W
                                           ; >>> gen.c:8596:genCast
                                           ;;	1150 rIdx = r0x1060 
00021a   00c1     movwf	0x41               	MOVWF	r0x102A
                                           ;; gen.c:2327:resultRemat *{*
                                           ;; gen.c:7895:genPointerSet *{*
                                           ;; ***	genPointerSet  7896
                                           ;; gen.c:7723:genNearPointerSet *{*
                                           ;; ***	genNearPointerSet  7724
                                           ;;	689
                                           ;;	aopForRemat 474
                                           ;;	495: rname _PORTD_bits, val 0, const = 0
                                           ;; ***	genNearPointerSet  7741
                                           ;;	769 register type nRegs=1
                                           ;;	879: aopGet AOP_PCODE type PO_IMMEDIATE
                                           ;;	_PORTD_bits
                                           ;; 	line = 7743 result AOP_PCODE=_PORTD_bits, size=2, left -=-, size=0, right AOP_REG=r0x1060, size=1
                                           ;; gen.c:7472:genPackBits *{*
                                           ;; ***	genPackBits  7473
                                           ; >>> gen.c:7571:genPackBits
                                           ;;	1150 rIdx = r0x1060 
00021b   0c41     rrf	0x41, w              	RRF	r0x102A,W
                                           ; >>> gen.c:7572:genPackBits
00021c   1803     btfsc	0x3, 0             	BTFSC	STATUS,0
00021d   2a21     goto	0x221               	GOTO	_00027_DS_
                                           ; >>> gen.c:7573:genPackBits
                                           ;;	879: aopGet AOP_PCODE type PO_IMMEDIATE
                                           ;;	_PORTD_bits
00021e   1283     bcf	0x3, 0x5             	BANKSEL	_PORTD_bits
00021f   1303     bcf	0x3, 0x6             
000220   1208     bcf	0x8, 0x4             	BCF	_PORTD_bits,4
                                           ; >>> gen.c:7574:genPackBits
                                           _00027_DS_
000221   1c03     btfss	0x3, 0             	BTFSS	STATUS,0
000222   2a26     goto	0x226               	GOTO	_00028_DS_
                                           ; >>> gen.c:7575:genPackBits
                                           ;;	879: aopGet AOP_PCODE type PO_IMMEDIATE
                                           ;;	_PORTD_bits
000223   1283     bcf	0x3, 0x5             	BANKSEL	_PORTD_bits
000224   1303     bcf	0x3, 0x6             
000225   1608     bsf	0x8, 0x4             	BSF	_PORTD_bits,4
                                           ;; gen.c:2327:resultRemat *{*
                                           ;; gen.c:2703:genGoto *{*
                                           ; >>> gen.c:2705:genGoto
                                           ;; ***	popGetLabel  key=26, label offset 52
                                           _00028_DS_
                                           	.line	140; "aquarium.c"	break;
000226   2ab6     goto	0x2b6               	GOTO	_00046_DS_
                                           ;; gen.c:2327:resultRemat *{*
                                           ;; gen.c:2686:genLabel *{*
                                           ;; ***	genLabel  2689
                                           ;; gen.c:2327:resultRemat *{*
                                           ;; gen.c:2327:resultRemat *{*
                                           ;; gen.c:8460:genCast *{*
                                           ;; ***	genCast  8461
                                           ;;	769 register type nRegs=1
                                           ;;	769 register type nRegs=1
                                           ;; 	line = 8469 result AOP_REG=r0x1060, size=1, left -=-, size=0, right AOP_REG=r0x1061, size=1
                                           ;; ***	genCast  8575
                                           ; >>> gen.c:8595:genCast
                                           ;;	1150 rIdx = r0x1061 
                                           _00167_DS_
                                           	.line	142; "aquarium.c"	LED14 = value;
000227   1283     bcf	0x3, 0x5             	BANKSEL	r0x102B
000228   1303     bcf	0x3, 0x6             
000229   0842     movf	0x42, w             	MOVF	r0x102B,W
                                           ; >>> gen.c:8596:genCast
                                           ;;	1150 rIdx = r0x1060 
00022a   00c1     movwf	0x41               	MOVWF	r0x102A
                                           ;; gen.c:2327:resultRemat *{*
                                           ;; gen.c:7895:genPointerSet *{*
                                           ;; ***	genPointerSet  7896
                                           ;; gen.c:7723:genNearPointerSet *{*
                                           ;; ***	genNearPointerSet  7724
                                           ;;	689
                                           ;;	aopForRemat 474
                                           ;;	495: rname _PORTD_bits, val 0, const = 0
                                           ;; ***	genNearPointerSet  7741
                                           ;;	769 register type nRegs=1
                                           ;;	879: aopGet AOP_PCODE type PO_IMMEDIATE
                                           ;;	_PORTD_bits
                                           ;; 	line = 7743 result AOP_PCODE=_PORTD_bits, size=2, left -=-, size=0, right AOP_REG=r0x1060, size=1
                                           ;; gen.c:7472:genPackBits *{*
                                           ;; ***	genPackBits  7473
                                           ; >>> gen.c:7571:genPackBits
                                           ;;	1150 rIdx = r0x1060 
00022b   0c41     rrf	0x41, w              	RRF	r0x102A,W
                                           ; >>> gen.c:7572:genPackBits
00022c   1803     btfsc	0x3, 0             	BTFSC	STATUS,0
00022d   2a31     goto	0x231               	GOTO	_00029_DS_
                                           ; >>> gen.c:7573:genPackBits
                                           ;;	879: aopGet AOP_PCODE type PO_IMMEDIATE
                                           ;;	_PORTD_bits
00022e   1283     bcf	0x3, 0x5             	BANKSEL	_PORTD_bits
00022f   1303     bcf	0x3, 0x6             
000230   1288     bcf	0x8, 0x5             	BCF	_PORTD_bits,5
                                           ; >>> gen.c:7574:genPackBits
                                           _00029_DS_
000231   1c03     btfss	0x3, 0             	BTFSS	STATUS,0
000232   2a36     goto	0x236               	GOTO	_00030_DS_
                                           ; >>> gen.c:7575:genPackBits
                                           ;;	879: aopGet AOP_PCODE type PO_IMMEDIATE
                                           ;;	_PORTD_bits
000233   1283     bcf	0x3, 0x5             	BANKSEL	_PORTD_bits
000234   1303     bcf	0x3, 0x6             
000235   1688     bsf	0x8, 0x5             	BSF	_PORTD_bits,5
                                           ;; gen.c:2327:resultRemat *{*
                                           ;; gen.c:2703:genGoto *{*
                                           ; >>> gen.c:2705:genGoto
                                           ;; ***	popGetLabel  key=26, label offset 52
                                           _00030_DS_
                                           	.line	143; "aquarium.c"	break;
000236   2ab6     goto	0x2b6               	GOTO	_00046_DS_
                                           ;; gen.c:2327:resultRemat *{*
                                           ;; gen.c:2686:genLabel *{*
                                           ;; ***	genLabel  2689
                                           ;; gen.c:2327:resultRemat *{*
                                           ;; gen.c:2327:resultRemat *{*
                                           ;; gen.c:8460:genCast *{*
                                           ;; ***	genCast  8461
                                           ;;	769 register type nRegs=1
                                           ;;	769 register type nRegs=1
                                           ;; 	line = 8469 result AOP_REG=r0x1060, size=1, left -=-, size=0, right AOP_REG=r0x1061, size=1
                                           ;; ***	genCast  8575
                                           ; >>> gen.c:8595:genCast
                                           ;;	1150 rIdx = r0x1061 
                                           _00168_DS_
                                           	.line	145; "aquarium.c"	LED15 = value;
000237   1283     bcf	0x3, 0x5             	BANKSEL	r0x102B
000238   1303     bcf	0x3, 0x6             
000239   0842     movf	0x42, w             	MOVF	r0x102B,W
                                           ; >>> gen.c:8596:genCast
                                           ;;	1150 rIdx = r0x1060 
00023a   00c1     movwf	0x41               	MOVWF	r0x102A
                                           ;; gen.c:2327:resultRemat *{*
                                           ;; gen.c:7895:genPointerSet *{*
                                           ;; ***	genPointerSet  7896
                                           ;; gen.c:7723:genNearPointerSet *{*
                                           ;; ***	genNearPointerSet  7724
                                           ;;	689
                                           ;;	aopForRemat 474
                                           ;;	495: rname _PORTD_bits, val 0, const = 0
                                           ;; ***	genNearPointerSet  7741
                                           ;;	769 register type nRegs=1
                                           ;;	879: aopGet AOP_PCODE type PO_IMMEDIATE
                                           ;;	_PORTD_bits
                                           ;; 	line = 7743 result AOP_PCODE=_PORTD_bits, size=2, left -=-, size=0, right AOP_REG=r0x1060, size=1
                                           ;; gen.c:7472:genPackBits *{*
                                           ;; ***	genPackBits  7473
                                           ; >>> gen.c:7571:genPackBits
                                           ;;	1150 rIdx = r0x1060 
00023b   0c41     rrf	0x41, w              	RRF	r0x102A,W
                                           ; >>> gen.c:7572:genPackBits
00023c   1803     btfsc	0x3, 0             	BTFSC	STATUS,0
00023d   2a41     goto	0x241               	GOTO	_00031_DS_
                                           ; >>> gen.c:7573:genPackBits
                                           ;;	879: aopGet AOP_PCODE type PO_IMMEDIATE
                                           ;;	_PORTD_bits
00023e   1283     bcf	0x3, 0x5             	BANKSEL	_PORTD_bits
00023f   1303     bcf	0x3, 0x6             
000240   1308     bcf	0x8, 0x6             	BCF	_PORTD_bits,6
                                           ; >>> gen.c:7574:genPackBits
                                           _00031_DS_
000241   1c03     btfss	0x3, 0             	BTFSS	STATUS,0
000242   2a46     goto	0x246               	GOTO	_00032_DS_
                                           ; >>> gen.c:7575:genPackBits
                                           ;;	879: aopGet AOP_PCODE type PO_IMMEDIATE
                                           ;;	_PORTD_bits
000243   1283     bcf	0x3, 0x5             	BANKSEL	_PORTD_bits
000244   1303     bcf	0x3, 0x6             
000245   1708     bsf	0x8, 0x6             	BSF	_PORTD_bits,6
                                           ;; gen.c:2327:resultRemat *{*
                                           ;; gen.c:2703:genGoto *{*
                                           ; >>> gen.c:2705:genGoto
                                           ;; ***	popGetLabel  key=26, label offset 52
                                           _00032_DS_
                                           	.line	146; "aquarium.c"	break;
000246   2ab6     goto	0x2b6               	GOTO	_00046_DS_
                                           ;; gen.c:2327:resultRemat *{*
                                           ;; gen.c:2686:genLabel *{*
                                           ;; ***	genLabel  2689
                                           ;; gen.c:2327:resultRemat *{*
                                           ;; gen.c:2327:resultRemat *{*
                                           ;; gen.c:8460:genCast *{*
                                           ;; ***	genCast  8461
                                           ;;	769 register type nRegs=1
                                           ;;	769 register type nRegs=1
                                           ;; 	line = 8469 result AOP_REG=r0x1060, size=1, left -=-, size=0, right AOP_REG=r0x1061, size=1
                                           ;; ***	genCast  8575
                                           ; >>> gen.c:8595:genCast
                                           ;;	1150 rIdx = r0x1061 
                                           _00169_DS_
                                           	.line	148; "aquarium.c"	LED16 = value;
000247   1283     bcf	0x3, 0x5             	BANKSEL	r0x102B
000248   1303     bcf	0x3, 0x6             
000249   0842     movf	0x42, w             	MOVF	r0x102B,W
                                           ; >>> gen.c:8596:genCast
                                           ;;	1150 rIdx = r0x1060 
00024a   00c1     movwf	0x41               	MOVWF	r0x102A
                                           ;; gen.c:2327:resultRemat *{*
                                           ;; gen.c:7895:genPointerSet *{*
                                           ;; ***	genPointerSet  7896
                                           ;; gen.c:7723:genNearPointerSet *{*
                                           ;; ***	genNearPointerSet  7724
                                           ;;	689
                                           ;;	aopForRemat 474
                                           ;;	495: rname _PORTD_bits, val 0, const = 0
                                           ;; ***	genNearPointerSet  7741
                                           ;;	769 register type nRegs=1
                                           ;;	879: aopGet AOP_PCODE type PO_IMMEDIATE
                                           ;;	_PORTD_bits
                                           ;; 	line = 7743 result AOP_PCODE=_PORTD_bits, size=2, left -=-, size=0, right AOP_REG=r0x1060, size=1
                                           ;; gen.c:7472:genPackBits *{*
                                           ;; ***	genPackBits  7473
                                           ; >>> gen.c:7571:genPackBits
                                           ;;	1150 rIdx = r0x1060 
00024b   0c41     rrf	0x41, w              	RRF	r0x102A,W
                                           ; >>> gen.c:7572:genPackBits
00024c   1803     btfsc	0x3, 0             	BTFSC	STATUS,0
00024d   2a51     goto	0x251               	GOTO	_00033_DS_
                                           ; >>> gen.c:7573:genPackBits
                                           ;;	879: aopGet AOP_PCODE type PO_IMMEDIATE
                                           ;;	_PORTD_bits
00024e   1283     bcf	0x3, 0x5             	BANKSEL	_PORTD_bits
00024f   1303     bcf	0x3, 0x6             
000250   1388     bcf	0x8, 0x7             	BCF	_PORTD_bits,7
                                           ; >>> gen.c:7574:genPackBits
                                           _00033_DS_
000251   1c03     btfss	0x3, 0             	BTFSS	STATUS,0
000252   2a56     goto	0x256               	GOTO	_00034_DS_
                                           ; >>> gen.c:7575:genPackBits
                                           ;;	879: aopGet AOP_PCODE type PO_IMMEDIATE
                                           ;;	_PORTD_bits
000253   1283     bcf	0x3, 0x5             	BANKSEL	_PORTD_bits
000254   1303     bcf	0x3, 0x6             
000255   1788     bsf	0x8, 0x7             	BSF	_PORTD_bits,7
                                           ;; gen.c:2327:resultRemat *{*
                                           ;; gen.c:2703:genGoto *{*
                                           ; >>> gen.c:2705:genGoto
                                           ;; ***	popGetLabel  key=26, label offset 52
                                           _00034_DS_
                                           	.line	149; "aquarium.c"	break;
000256   2ab6     goto	0x2b6               	GOTO	_00046_DS_
                                           ;; gen.c:2327:resultRemat *{*
                                           ;; gen.c:2686:genLabel *{*
                                           ;; ***	genLabel  2689
                                           ;; gen.c:2327:resultRemat *{*
                                           ;; gen.c:2327:resultRemat *{*
                                           ;; gen.c:8460:genCast *{*
                                           ;; ***	genCast  8461
                                           ;;	769 register type nRegs=1
                                           ;;	769 register type nRegs=1
                                           ;; 	line = 8469 result AOP_REG=r0x1060, size=1, left -=-, size=0, right AOP_REG=r0x1061, size=1
                                           ;; ***	genCast  8575
                                           ; >>> gen.c:8595:genCast
                                           ;;	1150 rIdx = r0x1061 
                                           _00170_DS_
                                           	.line	151; "aquarium.c"	LED17 = value;
000257   1283     bcf	0x3, 0x5             	BANKSEL	r0x102B
000258   1303     bcf	0x3, 0x6             
000259   0842     movf	0x42, w             	MOVF	r0x102B,W
                                           ; >>> gen.c:8596:genCast
                                           ;;	1150 rIdx = r0x1060 
00025a   00c1     movwf	0x41               	MOVWF	r0x102A
                                           ;; gen.c:2327:resultRemat *{*
                                           ;; gen.c:7895:genPointerSet *{*
                                           ;; ***	genPointerSet  7896
                                           ;; gen.c:7723:genNearPointerSet *{*
                                           ;; ***	genNearPointerSet  7724
                                           ;;	689
                                           ;;	aopForRemat 474
                                           ;;	495: rname _PORTB_bits, val 0, const = 0
                                           ;; ***	genNearPointerSet  7741
                                           ;;	769 register type nRegs=1
                                           ;;	879: aopGet AOP_PCODE type PO_IMMEDIATE
                                           ;;	_PORTB_bits
                                           ;; 	line = 7743 result AOP_PCODE=_PORTB_bits, size=2, left -=-, size=0, right AOP_REG=r0x1060, size=1
                                           ;; gen.c:7472:genPackBits *{*
                                           ;; ***	genPackBits  7473
                                           ; >>> gen.c:7571:genPackBits
                                           ;;	1150 rIdx = r0x1060 
00025b   0c41     rrf	0x41, w              	RRF	r0x102A,W
                                           ; >>> gen.c:7572:genPackBits
00025c   1803     btfsc	0x3, 0             	BTFSC	STATUS,0
00025d   2a61     goto	0x261               	GOTO	_00035_DS_
                                           ; >>> gen.c:7573:genPackBits
                                           ;;	879: aopGet AOP_PCODE type PO_IMMEDIATE
                                           ;;	_PORTB_bits
00025e   1283     bcf	0x3, 0x5             	BANKSEL	_PORTB_bits
00025f   1303     bcf	0x3, 0x6             
000260   1006     bcf	0x6, 0               	BCF	_PORTB_bits,0
                                           ; >>> gen.c:7574:genPackBits
                                           _00035_DS_
000261   1c03     btfss	0x3, 0             	BTFSS	STATUS,0
000262   2a66     goto	0x266               	GOTO	_00036_DS_
                                           ; >>> gen.c:7575:genPackBits
                                           ;;	879: aopGet AOP_PCODE type PO_IMMEDIATE
                                           ;;	_PORTB_bits
000263   1283     bcf	0x3, 0x5             	BANKSEL	_PORTB_bits
000264   1303     bcf	0x3, 0x6             
000265   1406     bsf	0x6, 0               	BSF	_PORTB_bits,0
                                           ;; gen.c:2327:resultRemat *{*
                                           ;; gen.c:2703:genGoto *{*
                                           ; >>> gen.c:2705:genGoto
                                           ;; ***	popGetLabel  key=26, label offset 52
                                           _00036_DS_
                                           	.line	152; "aquarium.c"	break;
000266   2ab6     goto	0x2b6               	GOTO	_00046_DS_
                                           ;; gen.c:2327:resultRemat *{*
                                           ;; gen.c:2686:genLabel *{*
                                           ;; ***	genLabel  2689
                                           ;; gen.c:2327:resultRemat *{*
                                           ;; gen.c:2327:resultRemat *{*
                                           ;; gen.c:8460:genCast *{*
                                           ;; ***	genCast  8461
                                           ;;	769 register type nRegs=1
                                           ;;	769 register type nRegs=1
                                           ;; 	line = 8469 result AOP_REG=r0x1060, size=1, left -=-, size=0, right AOP_REG=r0x1061, size=1
                                           ;; ***	genCast  8575
                                           ; >>> gen.c:8595:genCast
                                           ;;	1150 rIdx = r0x1061 
                                           _00171_DS_
                                           	.line	154; "aquarium.c"	LED18 = value;
000267   1283     bcf	0x3, 0x5             	BANKSEL	r0x102B
000268   1303     bcf	0x3, 0x6             
000269   0842     movf	0x42, w             	MOVF	r0x102B,W
                                           ; >>> gen.c:8596:genCast
                                           ;;	1150 rIdx = r0x1060 
00026a   00c1     movwf	0x41               	MOVWF	r0x102A
                                           ;; gen.c:2327:resultRemat *{*
                                           ;; gen.c:7895:genPointerSet *{*
                                           ;; ***	genPointerSet  7896
                                           ;; gen.c:7723:genNearPointerSet *{*
                                           ;; ***	genNearPointerSet  7724
                                           ;;	689
                                           ;;	aopForRemat 474
                                           ;;	495: rname _PORTB_bits, val 0, const = 0
                                           ;; ***	genNearPointerSet  7741
                                           ;;	769 register type nRegs=1
                                           ;;	879: aopGet AOP_PCODE type PO_IMMEDIATE
                                           ;;	_PORTB_bits
                                           ;; 	line = 7743 result AOP_PCODE=_PORTB_bits, size=2, left -=-, size=0, right AOP_REG=r0x1060, size=1
                                           ;; gen.c:7472:genPackBits *{*
                                           ;; ***	genPackBits  7473
                                           ; >>> gen.c:7571:genPackBits
                                           ;;	1150 rIdx = r0x1060 
00026b   0c41     rrf	0x41, w              	RRF	r0x102A,W
                                           ; >>> gen.c:7572:genPackBits
00026c   1803     btfsc	0x3, 0             	BTFSC	STATUS,0
00026d   2a71     goto	0x271               	GOTO	_00037_DS_
                                           ; >>> gen.c:7573:genPackBits
                                           ;;	879: aopGet AOP_PCODE type PO_IMMEDIATE
                                           ;;	_PORTB_bits
00026e   1283     bcf	0x3, 0x5             	BANKSEL	_PORTB_bits
00026f   1303     bcf	0x3, 0x6             
000270   1086     bcf	0x6, 0x1             	BCF	_PORTB_bits,1
                                           ; >>> gen.c:7574:genPackBits
                                           _00037_DS_
000271   1c03     btfss	0x3, 0             	BTFSS	STATUS,0
000272   2a76     goto	0x276               	GOTO	_00038_DS_
                                           ; >>> gen.c:7575:genPackBits
                                           ;;	879: aopGet AOP_PCODE type PO_IMMEDIATE
                                           ;;	_PORTB_bits
000273   1283     bcf	0x3, 0x5             	BANKSEL	_PORTB_bits
000274   1303     bcf	0x3, 0x6             
000275   1486     bsf	0x6, 0x1             	BSF	_PORTB_bits,1
                                           ;; gen.c:2327:resultRemat *{*
                                           ;; gen.c:2703:genGoto *{*
                                           ; >>> gen.c:2705:genGoto
                                           ;; ***	popGetLabel  key=26, label offset 52
                                           _00038_DS_
                                           	.line	155; "aquarium.c"	break;
000276   2ab6     goto	0x2b6               	GOTO	_00046_DS_
                                           ;; gen.c:2327:resultRemat *{*
                                           ;; gen.c:2686:genLabel *{*
                                           ;; ***	genLabel  2689
                                           ;; gen.c:2327:resultRemat *{*
                                           ;; gen.c:2327:resultRemat *{*
                                           ;; gen.c:8460:genCast *{*
                                           ;; ***	genCast  8461
                                           ;;	769 register type nRegs=1
                                           ;;	769 register type nRegs=1
                                           ;; 	line = 8469 result AOP_REG=r0x1060, size=1, left -=-, size=0, right AOP_REG=r0x1061, size=1
                                           ;; ***	genCast  8575
                                           ; >>> gen.c:8595:genCast
                                           ;;	1150 rIdx = r0x1061 
                                           _00172_DS_
                                           	.line	157; "aquarium.c"	LED19 = value;
000277   1283     bcf	0x3, 0x5             	BANKSEL	r0x102B
000278   1303     bcf	0x3, 0x6             
000279   0842     movf	0x42, w             	MOVF	r0x102B,W
                                           ; >>> gen.c:8596:genCast
                                           ;;	1150 rIdx = r0x1060 
00027a   00c1     movwf	0x41               	MOVWF	r0x102A
                                           ;; gen.c:2327:resultRemat *{*
                                           ;; gen.c:7895:genPointerSet *{*
                                           ;; ***	genPointerSet  7896
                                           ;; gen.c:7723:genNearPointerSet *{*
                                           ;; ***	genNearPointerSet  7724
                                           ;;	689
                                           ;;	aopForRemat 474
                                           ;;	495: rname _PORTB_bits, val 0, const = 0
                                           ;; ***	genNearPointerSet  7741
                                           ;;	769 register type nRegs=1
                                           ;;	879: aopGet AOP_PCODE type PO_IMMEDIATE
                                           ;;	_PORTB_bits
                                           ;; 	line = 7743 result AOP_PCODE=_PORTB_bits, size=2, left -=-, size=0, right AOP_REG=r0x1060, size=1
                                           ;; gen.c:7472:genPackBits *{*
                                           ;; ***	genPackBits  7473
                                           ; >>> gen.c:7571:genPackBits
                                           ;;	1150 rIdx = r0x1060 
00027b   0c41     rrf	0x41, w              	RRF	r0x102A,W
                                           ; >>> gen.c:7572:genPackBits
00027c   1803     btfsc	0x3, 0             	BTFSC	STATUS,0
00027d   2a81     goto	0x281               	GOTO	_00039_DS_
                                           ; >>> gen.c:7573:genPackBits
                                           ;;	879: aopGet AOP_PCODE type PO_IMMEDIATE
                                           ;;	_PORTB_bits
00027e   1283     bcf	0x3, 0x5             	BANKSEL	_PORTB_bits
00027f   1303     bcf	0x3, 0x6             
000280   1106     bcf	0x6, 0x2             	BCF	_PORTB_bits,2
                                           ; >>> gen.c:7574:genPackBits
                                           _00039_DS_
000281   1c03     btfss	0x3, 0             	BTFSS	STATUS,0
000282   2a86     goto	0x286               	GOTO	_00040_DS_
                                           ; >>> gen.c:7575:genPackBits
                                           ;;	879: aopGet AOP_PCODE type PO_IMMEDIATE
                                           ;;	_PORTB_bits
000283   1283     bcf	0x3, 0x5             	BANKSEL	_PORTB_bits
000284   1303     bcf	0x3, 0x6             
000285   1506     bsf	0x6, 0x2             	BSF	_PORTB_bits,2
                                           ;; gen.c:2327:resultRemat *{*
                                           ;; gen.c:2703:genGoto *{*
                                           ; >>> gen.c:2705:genGoto
                                           ;; ***	popGetLabel  key=26, label offset 52
                                           _00040_DS_
                                           	.line	158; "aquarium.c"	break;
000286   2ab6     goto	0x2b6               	GOTO	_00046_DS_
                                           ;; gen.c:2327:resultRemat *{*
                                           ;; gen.c:2686:genLabel *{*
                                           ;; ***	genLabel  2689
                                           ;; gen.c:2327:resultRemat *{*
                                           ;; gen.c:2327:resultRemat *{*
                                           ;; gen.c:8460:genCast *{*
                                           ;; ***	genCast  8461
                                           ;;	769 register type nRegs=1
                                           ;;	769 register type nRegs=1
                                           ;; 	line = 8469 result AOP_REG=r0x1060, size=1, left -=-, size=0, right AOP_REG=r0x1061, size=1
                                           ;; ***	genCast  8575
                                           ; >>> gen.c:8595:genCast
                                           ;;	1150 rIdx = r0x1061 
                                           _00173_DS_
                                           	.line	160; "aquarium.c"	LED20 = value;
000287   1283     bcf	0x3, 0x5             	BANKSEL	r0x102B
000288   1303     bcf	0x3, 0x6             
000289   0842     movf	0x42, w             	MOVF	r0x102B,W
                                           ; >>> gen.c:8596:genCast
                                           ;;	1150 rIdx = r0x1060 
00028a   00c1     movwf	0x41               	MOVWF	r0x102A
                                           ;; gen.c:2327:resultRemat *{*
                                           ;; gen.c:7895:genPointerSet *{*
                                           ;; ***	genPointerSet  7896
                                           ;; gen.c:7723:genNearPointerSet *{*
                                           ;; ***	genNearPointerSet  7724
                                           ;;	689
                                           ;;	aopForRemat 474
                                           ;;	495: rname _PORTB_bits, val 0, const = 0
                                           ;; ***	genNearPointerSet  7741
                                           ;;	769 register type nRegs=1
                                           ;;	879: aopGet AOP_PCODE type PO_IMMEDIATE
                                           ;;	_PORTB_bits
                                           ;; 	line = 7743 result AOP_PCODE=_PORTB_bits, size=2, left -=-, size=0, right AOP_REG=r0x1060, size=1
                                           ;; gen.c:7472:genPackBits *{*
                                           ;; ***	genPackBits  7473
                                           ; >>> gen.c:7571:genPackBits
                                           ;;	1150 rIdx = r0x1060 
00028b   0c41     rrf	0x41, w              	RRF	r0x102A,W
                                           ; >>> gen.c:7572:genPackBits
00028c   1803     btfsc	0x3, 0             	BTFSC	STATUS,0
00028d   2a91     goto	0x291               	GOTO	_00041_DS_
                                           ; >>> gen.c:7573:genPackBits
                                           ;;	879: aopGet AOP_PCODE type PO_IMMEDIATE
                                           ;;	_PORTB_bits
00028e   1283     bcf	0x3, 0x5             	BANKSEL	_PORTB_bits
00028f   1303     bcf	0x3, 0x6             
000290   1186     bcf	0x6, 0x3             	BCF	_PORTB_bits,3
                                           ; >>> gen.c:7574:genPackBits
                                           _00041_DS_
000291   1c03     btfss	0x3, 0             	BTFSS	STATUS,0
000292   2a96     goto	0x296               	GOTO	_00042_DS_
                                           ; >>> gen.c:7575:genPackBits
                                           ;;	879: aopGet AOP_PCODE type PO_IMMEDIATE
                                           ;;	_PORTB_bits
000293   1283     bcf	0x3, 0x5             	BANKSEL	_PORTB_bits
000294   1303     bcf	0x3, 0x6             
000295   1586     bsf	0x6, 0x3             	BSF	_PORTB_bits,3
                                           ;; gen.c:2327:resultRemat *{*
                                           ;; gen.c:2703:genGoto *{*
                                           ; >>> gen.c:2705:genGoto
                                           ;; ***	popGetLabel  key=26, label offset 52
                                           _00042_DS_
                                           	.line	161; "aquarium.c"	break;
000296   2ab6     goto	0x2b6               	GOTO	_00046_DS_
                                           ;; gen.c:2327:resultRemat *{*
                                           ;; gen.c:2686:genLabel *{*
                                           ;; ***	genLabel  2689
                                           ;; gen.c:2327:resultRemat *{*
                                           ;; gen.c:2327:resultRemat *{*
                                           ;; gen.c:8460:genCast *{*
                                           ;; ***	genCast  8461
                                           ;;	769 register type nRegs=1
                                           ;;	769 register type nRegs=1
                                           ;; 	line = 8469 result AOP_REG=r0x1060, size=1, left -=-, size=0, right AOP_REG=r0x1061, size=1
                                           ;; ***	genCast  8575
                                           ; >>> gen.c:8595:genCast
                                           ;;	1150 rIdx = r0x1061 
                                           _00174_DS_
                                           	.line	163; "aquarium.c"	LED21 = value;
000297   1283     bcf	0x3, 0x5             	BANKSEL	r0x102B
000298   1303     bcf	0x3, 0x6             
000299   0842     movf	0x42, w             	MOVF	r0x102B,W
                                           ; >>> gen.c:8596:genCast
                                           ;;	1150 rIdx = r0x1060 
00029a   00c1     movwf	0x41               	MOVWF	r0x102A
                                           ;; gen.c:2327:resultRemat *{*
                                           ;; gen.c:7895:genPointerSet *{*
                                           ;; ***	genPointerSet  7896
                                           ;; gen.c:7723:genNearPointerSet *{*
                                           ;; ***	genNearPointerSet  7724
                                           ;;	689
                                           ;;	aopForRemat 474
                                           ;;	495: rname _PORTB_bits, val 0, const = 0
                                           ;; ***	genNearPointerSet  7741
                                           ;;	769 register type nRegs=1
                                           ;;	879: aopGet AOP_PCODE type PO_IMMEDIATE
                                           ;;	_PORTB_bits
                                           ;; 	line = 7743 result AOP_PCODE=_PORTB_bits, size=2, left -=-, size=0, right AOP_REG=r0x1060, size=1
                                           ;; gen.c:7472:genPackBits *{*
                                           ;; ***	genPackBits  7473
                                           ; >>> gen.c:7571:genPackBits
                                           ;;	1150 rIdx = r0x1060 
00029b   0c41     rrf	0x41, w              	RRF	r0x102A,W
                                           ; >>> gen.c:7572:genPackBits
00029c   1803     btfsc	0x3, 0             	BTFSC	STATUS,0
00029d   2aa1     goto	0x2a1               	GOTO	_00043_DS_
                                           ; >>> gen.c:7573:genPackBits
                                           ;;	879: aopGet AOP_PCODE type PO_IMMEDIATE
                                           ;;	_PORTB_bits
00029e   1283     bcf	0x3, 0x5             	BANKSEL	_PORTB_bits
00029f   1303     bcf	0x3, 0x6             
0002a0   1206     bcf	0x6, 0x4             	BCF	_PORTB_bits,4
                                           ; >>> gen.c:7574:genPackBits
                                           _00043_DS_
0002a1   1c03     btfss	0x3, 0             	BTFSS	STATUS,0
0002a2   2aa6     goto	0x2a6               	GOTO	_00044_DS_
                                           ; >>> gen.c:7575:genPackBits
                                           ;;	879: aopGet AOP_PCODE type PO_IMMEDIATE
                                           ;;	_PORTB_bits
0002a3   1283     bcf	0x3, 0x5             	BANKSEL	_PORTB_bits
0002a4   1303     bcf	0x3, 0x6             
0002a5   1606     bsf	0x6, 0x4             	BSF	_PORTB_bits,4
                                           ;; gen.c:2327:resultRemat *{*
                                           ;; gen.c:2703:genGoto *{*
                                           ; >>> gen.c:2705:genGoto
                                           ;; ***	popGetLabel  key=26, label offset 52
                                           _00044_DS_
                                           	.line	164; "aquarium.c"	break;
0002a6   2ab6     goto	0x2b6               	GOTO	_00046_DS_
                                           ;; gen.c:2327:resultRemat *{*
                                           ;; gen.c:2686:genLabel *{*
                                           ;; ***	genLabel  2689
                                           ;; gen.c:2327:resultRemat *{*
                                           ;; gen.c:2327:resultRemat *{*
                                           ;; gen.c:8460:genCast *{*
                                           ;; ***	genCast  8461
                                           ;;	769 register type nRegs=1
                                           ;;	769 register type nRegs=1
                                           ;; 	line = 8469 result AOP_REG=r0x1060, size=1, left -=-, size=0, right AOP_REG=r0x1061, size=1
                                           ;; ***	genCast  8575
                                           ; >>> gen.c:8595:genCast
                                           ;;	1150 rIdx = r0x1061 
                                           _00175_DS_
                                           	.line	166; "aquarium.c"	LED22 = value;
0002a7   1283     bcf	0x3, 0x5             	BANKSEL	r0x102B
0002a8   1303     bcf	0x3, 0x6             
0002a9   0842     movf	0x42, w             	MOVF	r0x102B,W
                                           ; >>> gen.c:8596:genCast
                                           ;;	1150 rIdx = r0x1060 
0002aa   00c1     movwf	0x41               	MOVWF	r0x102A
                                           ;; gen.c:2327:resultRemat *{*
                                           ;; gen.c:7895:genPointerSet *{*
                                           ;; ***	genPointerSet  7896
                                           ;; gen.c:7723:genNearPointerSet *{*
                                           ;; ***	genNearPointerSet  7724
                                           ;;	689
                                           ;;	aopForRemat 474
                                           ;;	495: rname _PORTB_bits, val 0, const = 0
                                           ;; ***	genNearPointerSet  7741
                                           ;;	769 register type nRegs=1
                                           ;;	879: aopGet AOP_PCODE type PO_IMMEDIATE
                                           ;;	_PORTB_bits
                                           ;; 	line = 7743 result AOP_PCODE=_PORTB_bits, size=2, left -=-, size=0, right AOP_REG=r0x1060, size=1
                                           ;; gen.c:7472:genPackBits *{*
                                           ;; ***	genPackBits  7473
                                           ; >>> gen.c:7571:genPackBits
                                           ;;	1150 rIdx = r0x1060 
0002ab   0c41     rrf	0x41, w              	RRF	r0x102A,W
                                           ; >>> gen.c:7572:genPackBits
0002ac   1803     btfsc	0x3, 0             	BTFSC	STATUS,0
0002ad   2ab1     goto	0x2b1               	GOTO	_00045_DS_
                                           ; >>> gen.c:7573:genPackBits
                                           ;;	879: aopGet AOP_PCODE type PO_IMMEDIATE
                                           ;;	_PORTB_bits
0002ae   1283     bcf	0x3, 0x5             	BANKSEL	_PORTB_bits
0002af   1303     bcf	0x3, 0x6             
0002b0   1286     bcf	0x6, 0x5             	BCF	_PORTB_bits,5
                                           ; >>> gen.c:7574:genPackBits
                                           _00045_DS_
0002b1   1c03     btfss	0x3, 0             	BTFSS	STATUS,0
0002b2   2ab6     goto	0x2b6               	GOTO	_00046_DS_
                                           ; >>> gen.c:7575:genPackBits
                                           ;;	879: aopGet AOP_PCODE type PO_IMMEDIATE
                                           ;;	_PORTB_bits
0002b3   1283     bcf	0x3, 0x5             	BANKSEL	_PORTB_bits
0002b4   1303     bcf	0x3, 0x6             
0002b5   1686     bsf	0x6, 0x5             	BSF	_PORTB_bits,5
                                           ;; gen.c:2327:resultRemat *{*
                                           ;; gen.c:2686:genLabel *{*
                                           ;; ***	genLabel  2689
                                           ;; gen.c:2327:resultRemat *{*
                                           ;; gen.c:2524:genEndFunction *{*
                                           ;; ***	genEndFunction  2526
                                           _00046_DS_
                                           	.line	169; "aquarium.c"	}
0002b6   0008     return                   	RETURN	
                                           ; exit point of _setLEDDiscrete
                                           ;; gen.c:8749:genpic14Code *{*
                                           
                                           ;***
                                           ;  pBlock Stats: dbName = C
                                           ;***
                                           ;entry:  _on_init	;Function start
                                           ; 2 exit points
                                           ;has an exit
                                           ;; Starting pCode block
                                           ;; gen.c:2327:resultRemat *{*
                                           ;; gen.c:2686:genLabel *{*
                                           ;; ***	genLabel  2689
                                           ;; gen.c:2327:resultRemat *{*
                                           ;; gen.c:2372:genFunction *{*
                                           ;; ***	genFunction  2374 curr label offset=41previous max_key=3 
                                           _on_init	;Function start
                                           ; 2 exit points
                                           ;; gen.c:2327:resultRemat *{*
                                           ;; gen.c:8139:genAssign *{*
                                           ;; ***	genAssign  8140
                                           ;; ***	aopForSym 393
                                           ;;	404 sym->rname = _ADCON1, size = 1
                                           ;; 	line = 8149 result AOP_DIR=_ADCON1, size=1, left -=-, size=0, right AOP_LIT=0x06, size=1
                                           ;; ***	genAssign  8241
                                           ; >>> gen.c:8246:genAssign
                                           	.line	64; "aquarium.c"	ADCON1=6;		//AD converter uit
0002b7   3006     movlw	0x6                	MOVLW	0x06
                                           ; >>> gen.c:8248:genAssign
                                           ;;	1036
                                           ;;	1052  _ADCON1   offset=0
0002b8   1683     bsf	0x3, 0x5             	BANKSEL	_ADCON1
0002b9   1303     bcf	0x3, 0x6             
0002ba   009f     movwf	0x1f               	MOVWF	_ADCON1
                                           ;; gen.c:2327:resultRemat *{*
                                           ;; gen.c:2327:resultRemat *{*
                                           ;; gen.c:7895:genPointerSet *{*
                                           ;; ***	genPointerSet  7896
                                           ;; gen.c:7723:genNearPointerSet *{*
                                           ;; ***	genNearPointerSet  7724
                                           ;;	689
                                           ;;	aopForRemat 474
                                           ;;	495: rname _TRISA_bits, val 0, const = 0
                                           ;; ***	genNearPointerSet  7741
                                           ;;	879: aopGet AOP_PCODE type PO_IMMEDIATE
                                           ;;	_TRISA_bits
                                           ;; 	line = 7743 result AOP_PCODE=_TRISA_bits, size=2, left -=-, size=0, right AOP_LIT=0x01, size=1
                                           ;; gen.c:7472:genPackBits *{*
                                           ;; ***	genPackBits  7473
                                           ;;	879: aopGet AOP_PCODE type PO_IMMEDIATE
                                           ;;	_TRISA_bits
                                           ; >>> gen.c:7498:genPackBits
                                           	.line	65; "aquarium.c"	TRIS_SW1 = 1;	//Knop1 input
0002bb   1405     bsf	0x5, 0               	BSF	_TRISA_bits,0
                                           ;; gen.c:2327:resultRemat *{*
                                           ;; gen.c:2327:resultRemat *{*
                                           ;; gen.c:7895:genPointerSet *{*
                                           ;; ***	genPointerSet  7896
                                           ;; gen.c:7723:genNearPointerSet *{*
                                           ;; ***	genNearPointerSet  7724
                                           ;;	689
                                           ;;	aopForRemat 474
                                           ;;	495: rname _TRISA_bits, val 0, const = 0
                                           ;; ***	genNearPointerSet  7741
                                           ;;	879: aopGet AOP_PCODE type PO_IMMEDIATE
                                           ;;	_TRISA_bits
                                           ;; 	line = 7743 result AOP_PCODE=_TRISA_bits, size=2, left -=-, size=0, right AOP_LIT=0x01, size=1
                                           ;; gen.c:7472:genPackBits *{*
                                           ;; ***	genPackBits  7473
                                           ;;	879: aopGet AOP_PCODE type PO_IMMEDIATE
                                           ;;	_TRISA_bits
                                           ; >>> gen.c:7498:genPackBits
                                           	.line	66; "aquarium.c"	TRIS_SW2 = 1;	//Knop2 input
0002bc   1485     bsf	0x5, 0x1             	BSF	_TRISA_bits,1
                                           ;; gen.c:2327:resultRemat *{*
                                           ;; gen.c:2327:resultRemat *{*
                                           ;; gen.c:7895:genPointerSet *{*
                                           ;; ***	genPointerSet  7896
                                           ;; gen.c:7723:genNearPointerSet *{*
                                           ;; ***	genNearPointerSet  7724
                                           ;;	689
                                           ;;	aopForRemat 474
                                           ;;	495: rname _TRISA_bits, val 0, const = 0
                                           ;; ***	genNearPointerSet  7741
                                           ;;	879: aopGet AOP_PCODE type PO_IMMEDIATE
                                           ;;	_TRISA_bits
                                           ;; 	line = 7743 result AOP_PCODE=_TRISA_bits, size=2, left -=-, size=0, right AOP_LIT=0x01, size=1
                                           ;; gen.c:7472:genPackBits *{*
                                           ;; ***	genPackBits  7473
                                           ;;	879: aopGet AOP_PCODE type PO_IMMEDIATE
                                           ;;	_TRISA_bits
                                           ; >>> gen.c:7498:genPackBits
                                           	.line	67; "aquarium.c"	TRIS_SW3 = 1;	//Knop3 input
0002bd   1505     bsf	0x5, 0x2             	BSF	_TRISA_bits,2
                                           ;; gen.c:2327:resultRemat *{*
                                           ;; gen.c:2327:resultRemat *{*
                                           ;; gen.c:7895:genPointerSet *{*
                                           ;; ***	genPointerSet  7896
                                           ;; gen.c:7723:genNearPointerSet *{*
                                           ;; ***	genNearPointerSet  7724
                                           ;;	689
                                           ;;	aopForRemat 474
                                           ;;	495: rname _TRISA_bits, val 0, const = 0
                                           ;; ***	genNearPointerSet  7741
                                           ;;	879: aopGet AOP_PCODE type PO_IMMEDIATE
                                           ;;	_TRISA_bits
                                           ;; 	line = 7743 result AOP_PCODE=_TRISA_bits, size=2, left -=-, size=0, right AOP_LIT=0x01, size=1
                                           ;; gen.c:7472:genPackBits *{*
                                           ;; ***	genPackBits  7473
                                           ;;	879: aopGet AOP_PCODE type PO_IMMEDIATE
                                           ;;	_TRISA_bits
                                           ; >>> gen.c:7498:genPackBits
                                           	.line	68; "aquarium.c"	TRIS_SW4 = 1;	//Knop4 input
0002be   1585     bsf	0x5, 0x3             	BSF	_TRISA_bits,3
                                           ;; gen.c:2327:resultRemat *{*
                                           ;; gen.c:2327:resultRemat *{*
                                           ;; gen.c:7895:genPointerSet *{*
                                           ;; ***	genPointerSet  7896
                                           ;; gen.c:7723:genNearPointerSet *{*
                                           ;; ***	genNearPointerSet  7724
                                           ;;	689
                                           ;;	aopForRemat 474
                                           ;;	495: rname _TRISE_bits, val 0, const = 0
                                           ;; ***	genNearPointerSet  7741
                                           ;;	879: aopGet AOP_PCODE type PO_IMMEDIATE
                                           ;;	_TRISE_bits
                                           ;; 	line = 7743 result AOP_PCODE=_TRISE_bits, size=2, left -=-, size=0, right AOP_LIT=0x00, size=1
                                           ;; gen.c:7472:genPackBits *{*
                                           ;; ***	genPackBits  7473
                                           ;;	879: aopGet AOP_PCODE type PO_IMMEDIATE
                                           ;;	_TRISE_bits
                                           ; >>> gen.c:7498:genPackBits
                                           	.line	70; "aquarium.c"	TRIS_LED0 = 0; //Led0 output
0002bf   1009     bcf	0x9, 0               	BCF	_TRISE_bits,0
                                           ;; gen.c:2327:resultRemat *{*
                                           ;; gen.c:2327:resultRemat *{*
                                           ;; gen.c:7895:genPointerSet *{*
                                           ;; ***	genPointerSet  7896
                                           ;; gen.c:7723:genNearPointerSet *{*
                                           ;; ***	genNearPointerSet  7724
                                           ;;	689
                                           ;;	aopForRemat 474
                                           ;;	495: rname _TRISC_bits, val 0, const = 0
                                           ;; ***	genNearPointerSet  7741
                                           ;;	879: aopGet AOP_PCODE type PO_IMMEDIATE
                                           ;;	_TRISC_bits
                                           ;; 	line = 7743 result AOP_PCODE=_TRISC_bits, size=2, left -=-, size=0, right AOP_LIT=0x00, size=1
                                           ;; gen.c:7472:genPackBits *{*
                                           ;; ***	genPackBits  7473
                                           ;;	879: aopGet AOP_PCODE type PO_IMMEDIATE
                                           ;;	_TRISC_bits
                                           ; >>> gen.c:7498:genPackBits
                                           	.line	71; "aquarium.c"	TRIS_LED1 = 0; //Led1 output
0002c0   1007     bcf	0x7, 0               	BCF	_TRISC_bits,0
                                           ;; gen.c:2327:resultRemat *{*
                                           ;; gen.c:2327:resultRemat *{*
                                           ;; gen.c:7895:genPointerSet *{*
                                           ;; ***	genPointerSet  7896
                                           ;; gen.c:7723:genNearPointerSet *{*
                                           ;; ***	genNearPointerSet  7724
                                           ;;	689
                                           ;;	aopForRemat 474
                                           ;;	495: rname _TRISC_bits, val 0, const = 0
                                           ;; ***	genNearPointerSet  7741
                                           ;;	879: aopGet AOP_PCODE type PO_IMMEDIATE
                                           ;;	_TRISC_bits
                                           ;; 	line = 7743 result AOP_PCODE=_TRISC_bits, size=2, left -=-, size=0, right AOP_LIT=0x00, size=1
                                           ;; gen.c:7472:genPackBits *{*
                                           ;; ***	genPackBits  7473
                                           ;;	879: aopGet AOP_PCODE type PO_IMMEDIATE
                                           ;;	_TRISC_bits
                                           ; >>> gen.c:7498:genPackBits
                                           	.line	72; "aquarium.c"	TRIS_LED2 = 0; //Led2 output
0002c1   1087     bcf	0x7, 0x1             	BCF	_TRISC_bits,1
                                           ;; gen.c:2327:resultRemat *{*
                                           ;; gen.c:2327:resultRemat *{*
                                           ;; gen.c:7895:genPointerSet *{*
                                           ;; ***	genPointerSet  7896
                                           ;; gen.c:7723:genNearPointerSet *{*
                                           ;; ***	genNearPointerSet  7724
                                           ;;	689
                                           ;;	aopForRemat 474
                                           ;;	495: rname _TRISC_bits, val 0, const = 0
                                           ;; ***	genNearPointerSet  7741
                                           ;;	879: aopGet AOP_PCODE type PO_IMMEDIATE
                                           ;;	_TRISC_bits
                                           ;; 	line = 7743 result AOP_PCODE=_TRISC_bits, size=2, left -=-, size=0, right AOP_LIT=0x00, size=1
                                           ;; gen.c:7472:genPackBits *{*
                                           ;; ***	genPackBits  7473
                                           ;;	879: aopGet AOP_PCODE type PO_IMMEDIATE
                                           ;;	_TRISC_bits
                                           ; >>> gen.c:7498:genPackBits
                                           	.line	73; "aquarium.c"	TRIS_LED3 = 0; //Led3 output
0002c2   1107     bcf	0x7, 0x2             	BCF	_TRISC_bits,2
                                           ;; gen.c:2327:resultRemat *{*
                                           ;; gen.c:2327:resultRemat *{*
                                           ;; gen.c:7895:genPointerSet *{*
                                           ;; ***	genPointerSet  7896
                                           ;; gen.c:7723:genNearPointerSet *{*
                                           ;; ***	genNearPointerSet  7724
                                           ;;	689
                                           ;;	aopForRemat 474
                                           ;;	495: rname _TRISC_bits, val 0, const = 0
                                           ;; ***	genNearPointerSet  7741
                                           ;;	879: aopGet AOP_PCODE type PO_IMMEDIATE
                                           ;;	_TRISC_bits
                                           ;; 	line = 7743 result AOP_PCODE=_TRISC_bits, size=2, left -=-, size=0, right AOP_LIT=0x00, size=1
                                           ;; gen.c:7472:genPackBits *{*
                                           ;; ***	genPackBits  7473
                                           ;;	879: aopGet AOP_PCODE type PO_IMMEDIATE
                                           ;;	_TRISC_bits
                                           ; >>> gen.c:7498:genPackBits
                                           	.line	74; "aquarium.c"	TRIS_LED4 = 0; //Led4 output
0002c3   1187     bcf	0x7, 0x3             	BCF	_TRISC_bits,3
                                           ;; gen.c:2327:resultRemat *{*
                                           ;; gen.c:2327:resultRemat *{*
                                           ;; gen.c:7895:genPointerSet *{*
                                           ;; ***	genPointerSet  7896
                                           ;; gen.c:7723:genNearPointerSet *{*
                                           ;; ***	genNearPointerSet  7724
                                           ;;	689
                                           ;;	aopForRemat 474
                                           ;;	495: rname _TRISC_bits, val 0, const = 0
                                           ;; ***	genNearPointerSet  7741
                                           ;;	879: aopGet AOP_PCODE type PO_IMMEDIATE
                                           ;;	_TRISC_bits
                                           ;; 	line = 7743 result AOP_PCODE=_TRISC_bits, size=2, left -=-, size=0, right AOP_LIT=0x00, size=1
                                           ;; gen.c:7472:genPackBits *{*
                                           ;; ***	genPackBits  7473
                                           ;;	879: aopGet AOP_PCODE type PO_IMMEDIATE
                                           ;;	_TRISC_bits
                                           ; >>> gen.c:7498:genPackBits
                                           	.line	75; "aquarium.c"	TRIS_LED5 = 0; //Led5 output
0002c4   1207     bcf	0x7, 0x4             	BCF	_TRISC_bits,4
                                           ;; gen.c:2327:resultRemat *{*
                                           ;; gen.c:2327:resultRemat *{*
                                           ;; gen.c:7895:genPointerSet *{*
                                           ;; ***	genPointerSet  7896
                                           ;; gen.c:7723:genNearPointerSet *{*
                                           ;; ***	genNearPointerSet  7724
                                           ;;	689
                                           ;;	aopForRemat 474
                                           ;;	495: rname _TRISC_bits, val 0, const = 0
                                           ;; ***	genNearPointerSet  7741
                                           ;;	879: aopGet AOP_PCODE type PO_IMMEDIATE
                                           ;;	_TRISC_bits
                                           ;; 	line = 7743 result AOP_PCODE=_TRISC_bits, size=2, left -=-, size=0, right AOP_LIT=0x00, size=1
                                           ;; gen.c:7472:genPackBits *{*
                                           ;; ***	genPackBits  7473
                                           ;;	879: aopGet AOP_PCODE type PO_IMMEDIATE
                                           ;;	_TRISC_bits
                                           ; >>> gen.c:7498:genPackBits
                                           	.line	76; "aquarium.c"	TRIS_LED6 = 0; //Led6 output
0002c5   1287     bcf	0x7, 0x5             	BCF	_TRISC_bits,5
                                           ;; gen.c:2327:resultRemat *{*
                                           ;; gen.c:2327:resultRemat *{*
                                           ;; gen.c:7895:genPointerSet *{*
                                           ;; ***	genPointerSet  7896
                                           ;; gen.c:7723:genNearPointerSet *{*
                                           ;; ***	genNearPointerSet  7724
                                           ;;	689
                                           ;;	aopForRemat 474
                                           ;;	495: rname _TRISC_bits, val 0, const = 0
                                           ;; ***	genNearPointerSet  7741
                                           ;;	879: aopGet AOP_PCODE type PO_IMMEDIATE
                                           ;;	_TRISC_bits
                                           ;; 	line = 7743 result AOP_PCODE=_TRISC_bits, size=2, left -=-, size=0, right AOP_LIT=0x00, size=1
                                           ;; gen.c:7472:genPackBits *{*
                                           ;; ***	genPackBits  7473
                                           ;;	879: aopGet AOP_PCODE type PO_IMMEDIATE
                                           ;;	_TRISC_bits
                                           ; >>> gen.c:7498:genPackBits
                                           	.line	77; "aquarium.c"	TRIS_LED7 = 0; //Led7 output
0002c6   1307     bcf	0x7, 0x6             	BCF	_TRISC_bits,6
                                           ;; gen.c:2327:resultRemat *{*
                                           ;; gen.c:2327:resultRemat *{*
                                           ;; gen.c:7895:genPointerSet *{*
                                           ;; ***	genPointerSet  7896
                                           ;; gen.c:7723:genNearPointerSet *{*
                                           ;; ***	genNearPointerSet  7724
                                           ;;	689
                                           ;;	aopForRemat 474
                                           ;;	495: rname _TRISC_bits, val 0, const = 0
                                           ;; ***	genNearPointerSet  7741
                                           ;;	879: aopGet AOP_PCODE type PO_IMMEDIATE
                                           ;;	_TRISC_bits
                                           ;; 	line = 7743 result AOP_PCODE=_TRISC_bits, size=2, left -=-, size=0, right AOP_LIT=0x00, size=1
                                           ;; gen.c:7472:genPackBits *{*
                                           ;; ***	genPackBits  7473
                                           ;;	879: aopGet AOP_PCODE type PO_IMMEDIATE
                                           ;;	_TRISC_bits
                                           ; >>> gen.c:7498:genPackBits
                                           	.line	78; "aquarium.c"	TRIS_LED8 = 0; //Led8 output
0002c7   1387     bcf	0x7, 0x7             	BCF	_TRISC_bits,7
                                           ;; gen.c:2327:resultRemat *{*
                                           ;; gen.c:2327:resultRemat *{*
                                           ;; gen.c:7895:genPointerSet *{*
                                           ;; ***	genPointerSet  7896
                                           ;; gen.c:7723:genNearPointerSet *{*
                                           ;; ***	genNearPointerSet  7724
                                           ;;	689
                                           ;;	aopForRemat 474
                                           ;;	495: rname _TRISD_bits, val 0, const = 0
                                           ;; ***	genNearPointerSet  7741
                                           ;;	879: aopGet AOP_PCODE type PO_IMMEDIATE
                                           ;;	_TRISD_bits
                                           ;; 	line = 7743 result AOP_PCODE=_TRISD_bits, size=2, left -=-, size=0, right AOP_LIT=0x00, size=1
                                           ;; gen.c:7472:genPackBits *{*
                                           ;; ***	genPackBits  7473
                                           ;;	879: aopGet AOP_PCODE type PO_IMMEDIATE
                                           ;;	_TRISD_bits
                                           ; >>> gen.c:7498:genPackBits
                                           	.line	79; "aquarium.c"	TRIS_LED9 = 0; //Led9 output
0002c8   1008     bcf	0x8, 0               	BCF	_TRISD_bits,0
                                           ;; gen.c:2327:resultRemat *{*
                                           ;; gen.c:2327:resultRemat *{*
                                           ;; gen.c:7895:genPointerSet *{*
                                           ;; ***	genPointerSet  7896
                                           ;; gen.c:7723:genNearPointerSet *{*
                                           ;; ***	genNearPointerSet  7724
                                           ;;	689
                                           ;;	aopForRemat 474
                                           ;;	495: rname _TRISD_bits, val 0, const = 0
                                           ;; ***	genNearPointerSet  7741
                                           ;;	879: aopGet AOP_PCODE type PO_IMMEDIATE
                                           ;;	_TRISD_bits
                                           ;; 	line = 7743 result AOP_PCODE=_TRISD_bits, size=2, left -=-, size=0, right AOP_LIT=0x00, size=1
                                           ;; gen.c:7472:genPackBits *{*
                                           ;; ***	genPackBits  7473
                                           ;;	879: aopGet AOP_PCODE type PO_IMMEDIATE
                                           ;;	_TRISD_bits
                                           ; >>> gen.c:7498:genPackBits
                                           	.line	80; "aquarium.c"	TRIS_LED10 = 0; //Led10 output
0002c9   1088     bcf	0x8, 0x1             	BCF	_TRISD_bits,1
                                           ;; gen.c:2327:resultRemat *{*
                                           ;; gen.c:2327:resultRemat *{*
                                           ;; gen.c:7895:genPointerSet *{*
                                           ;; ***	genPointerSet  7896
                                           ;; gen.c:7723:genNearPointerSet *{*
                                           ;; ***	genNearPointerSet  7724
                                           ;;	689
                                           ;;	aopForRemat 474
                                           ;;	495: rname _TRISD_bits, val 0, const = 0
                                           ;; ***	genNearPointerSet  7741
                                           ;;	879: aopGet AOP_PCODE type PO_IMMEDIATE
                                           ;;	_TRISD_bits
                                           ;; 	line = 7743 result AOP_PCODE=_TRISD_bits, size=2, left -=-, size=0, right AOP_LIT=0x00, size=1
                                           ;; gen.c:7472:genPackBits *{*
                                           ;; ***	genPackBits  7473
                                           ;;	879: aopGet AOP_PCODE type PO_IMMEDIATE
                                           ;;	_TRISD_bits
                                           ; >>> gen.c:7498:genPackBits
                                           	.line	81; "aquarium.c"	TRIS_LED11 = 0; //Led11 output
0002ca   1108     bcf	0x8, 0x2             	BCF	_TRISD_bits,2
                                           ;; gen.c:2327:resultRemat *{*
                                           ;; gen.c:2327:resultRemat *{*
                                           ;; gen.c:7895:genPointerSet *{*
                                           ;; ***	genPointerSet  7896
                                           ;; gen.c:7723:genNearPointerSet *{*
                                           ;; ***	genNearPointerSet  7724
                                           ;;	689
                                           ;;	aopForRemat 474
                                           ;;	495: rname _TRISD_bits, val 0, const = 0
                                           ;; ***	genNearPointerSet  7741
                                           ;;	879: aopGet AOP_PCODE type PO_IMMEDIATE
                                           ;;	_TRISD_bits
                                           ;; 	line = 7743 result AOP_PCODE=_TRISD_bits, size=2, left -=-, size=0, right AOP_LIT=0x00, size=1
                                           ;; gen.c:7472:genPackBits *{*
                                           ;; ***	genPackBits  7473
                                           ;;	879: aopGet AOP_PCODE type PO_IMMEDIATE
                                           ;;	_TRISD_bits
                                           ; >>> gen.c:7498:genPackBits
                                           	.line	82; "aquarium.c"	TRIS_LED12 = 0; //Led12 output
0002cb   1188     bcf	0x8, 0x3             	BCF	_TRISD_bits,3
                                           ;; gen.c:2327:resultRemat *{*
                                           ;; gen.c:2327:resultRemat *{*
                                           ;; gen.c:7895:genPointerSet *{*
                                           ;; ***	genPointerSet  7896
                                           ;; gen.c:7723:genNearPointerSet *{*
                                           ;; ***	genNearPointerSet  7724
                                           ;;	689
                                           ;;	aopForRemat 474
                                           ;;	495: rname _TRISD_bits, val 0, const = 0
                                           ;; ***	genNearPointerSet  7741
                                           ;;	879: aopGet AOP_PCODE type PO_IMMEDIATE
                                           ;;	_TRISD_bits
                                           ;; 	line = 7743 result AOP_PCODE=_TRISD_bits, size=2, left -=-, size=0, right AOP_LIT=0x00, size=1
                                           ;; gen.c:7472:genPackBits *{*
                                           ;; ***	genPackBits  7473
                                           ;;	879: aopGet AOP_PCODE type PO_IMMEDIATE
                                           ;;	_TRISD_bits
                                           ; >>> gen.c:7498:genPackBits
                                           	.line	83; "aquarium.c"	TRIS_LED13 = 0; //Led13 output
0002cc   1208     bcf	0x8, 0x4             	BCF	_TRISD_bits,4
                                           ;; gen.c:2327:resultRemat *{*
                                           ;; gen.c:2327:resultRemat *{*
                                           ;; gen.c:7895:genPointerSet *{*
                                           ;; ***	genPointerSet  7896
                                           ;; gen.c:7723:genNearPointerSet *{*
                                           ;; ***	genNearPointerSet  7724
                                           ;;	689
                                           ;;	aopForRemat 474
                                           ;;	495: rname _TRISD_bits, val 0, const = 0
                                           ;; ***	genNearPointerSet  7741
                                           ;;	879: aopGet AOP_PCODE type PO_IMMEDIATE
                                           ;;	_TRISD_bits
                                           ;; 	line = 7743 result AOP_PCODE=_TRISD_bits, size=2, left -=-, size=0, right AOP_LIT=0x00, size=1
                                           ;; gen.c:7472:genPackBits *{*
                                           ;; ***	genPackBits  7473
                                           ;;	879: aopGet AOP_PCODE type PO_IMMEDIATE
                                           ;;	_TRISD_bits
                                           ; >>> gen.c:7498:genPackBits
                                           	.line	84; "aquarium.c"	TRIS_LED14 = 0; //Led14 output
0002cd   1288     bcf	0x8, 0x5             	BCF	_TRISD_bits,5
                                           ;; gen.c:2327:resultRemat *{*
                                           ;; gen.c:2327:resultRemat *{*
                                           ;; gen.c:7895:genPointerSet *{*
                                           ;; ***	genPointerSet  7896
                                           ;; gen.c:7723:genNearPointerSet *{*
                                           ;; ***	genNearPointerSet  7724
                                           ;;	689
                                           ;;	aopForRemat 474
                                           ;;	495: rname _TRISD_bits, val 0, const = 0
                                           ;; ***	genNearPointerSet  7741
                                           ;;	879: aopGet AOP_PCODE type PO_IMMEDIATE
                                           ;;	_TRISD_bits
                                           ;; 	line = 7743 result AOP_PCODE=_TRISD_bits, size=2, left -=-, size=0, right AOP_LIT=0x00, size=1
                                           ;; gen.c:7472:genPackBits *{*
                                           ;; ***	genPackBits  7473
                                           ;;	879: aopGet AOP_PCODE type PO_IMMEDIATE
                                           ;;	_TRISD_bits
                                           ; >>> gen.c:7498:genPackBits
                                           	.line	85; "aquarium.c"	TRIS_LED15 = 0; //Led15 output
0002ce   1308     bcf	0x8, 0x6             	BCF	_TRISD_bits,6
                                           ;; gen.c:2327:resultRemat *{*
                                           ;; gen.c:2327:resultRemat *{*
                                           ;; gen.c:7895:genPointerSet *{*
                                           ;; ***	genPointerSet  7896
                                           ;; gen.c:7723:genNearPointerSet *{*
                                           ;; ***	genNearPointerSet  7724
                                           ;;	689
                                           ;;	aopForRemat 474
                                           ;;	495: rname _TRISD_bits, val 0, const = 0
                                           ;; ***	genNearPointerSet  7741
                                           ;;	879: aopGet AOP_PCODE type PO_IMMEDIATE
                                           ;;	_TRISD_bits
                                           ;; 	line = 7743 result AOP_PCODE=_TRISD_bits, size=2, left -=-, size=0, right AOP_LIT=0x00, size=1
                                           ;; gen.c:7472:genPackBits *{*
                                           ;; ***	genPackBits  7473
                                           ;;	879: aopGet AOP_PCODE type PO_IMMEDIATE
                                           ;;	_TRISD_bits
                                           ; >>> gen.c:7498:genPackBits
                                           	.line	86; "aquarium.c"	TRIS_LED16 = 0; //Led16 output
0002cf   1388     bcf	0x8, 0x7             	BCF	_TRISD_bits,7
                                           ;; gen.c:2327:resultRemat *{*
                                           ;; gen.c:2327:resultRemat *{*
                                           ;; gen.c:7895:genPointerSet *{*
                                           ;; ***	genPointerSet  7896
                                           ;; gen.c:7723:genNearPointerSet *{*
                                           ;; ***	genNearPointerSet  7724
                                           ;;	689
                                           ;;	aopForRemat 474
                                           ;;	495: rname _TRISB_bits, val 0, const = 0
                                           ;; ***	genNearPointerSet  7741
                                           ;;	879: aopGet AOP_PCODE type PO_IMMEDIATE
                                           ;;	_TRISB_bits
                                           ;; 	line = 7743 result AOP_PCODE=_TRISB_bits, size=2, left -=-, size=0, right AOP_LIT=0x00, size=1
                                           ;; gen.c:7472:genPackBits *{*
                                           ;; ***	genPackBits  7473
                                           ;;	879: aopGet AOP_PCODE type PO_IMMEDIATE
                                           ;;	_TRISB_bits
                                           ; >>> gen.c:7498:genPackBits
                                           	.line	87; "aquarium.c"	TRIS_LED17 = 0; //Led17 output
0002d0   1006     bcf	0x6, 0               	BCF	_TRISB_bits,0
                                           ;; gen.c:2327:resultRemat *{*
                                           ;; gen.c:2327:resultRemat *{*
                                           ;; gen.c:7895:genPointerSet *{*
                                           ;; ***	genPointerSet  7896
                                           ;; gen.c:7723:genNearPointerSet *{*
                                           ;; ***	genNearPointerSet  7724
                                           ;;	689
                                           ;;	aopForRemat 474
                                           ;;	495: rname _TRISB_bits, val 0, const = 0
                                           ;; ***	genNearPointerSet  7741
                                           ;;	879: aopGet AOP_PCODE type PO_IMMEDIATE
                                           ;;	_TRISB_bits
                                           ;; 	line = 7743 result AOP_PCODE=_TRISB_bits, size=2, left -=-, size=0, right AOP_LIT=0x00, size=1
                                           ;; gen.c:7472:genPackBits *{*
                                           ;; ***	genPackBits  7473
                                           ;;	879: aopGet AOP_PCODE type PO_IMMEDIATE
                                           ;;	_TRISB_bits
                                           ; >>> gen.c:7498:genPackBits
                                           	.line	88; "aquarium.c"	TRIS_LED18 = 0; //Led18 output
0002d1   1086     bcf	0x6, 0x1             	BCF	_TRISB_bits,1
                                           ;; gen.c:2327:resultRemat *{*
                                           ;; gen.c:2327:resultRemat *{*
                                           ;; gen.c:7895:genPointerSet *{*
                                           ;; ***	genPointerSet  7896
                                           ;; gen.c:7723:genNearPointerSet *{*
                                           ;; ***	genNearPointerSet  7724
                                           ;;	689
                                           ;;	aopForRemat 474
                                           ;;	495: rname _TRISB_bits, val 0, const = 0
                                           ;; ***	genNearPointerSet  7741
                                           ;;	879: aopGet AOP_PCODE type PO_IMMEDIATE
                                           ;;	_TRISB_bits
                                           ;; 	line = 7743 result AOP_PCODE=_TRISB_bits, size=2, left -=-, size=0, right AOP_LIT=0x00, size=1
                                           ;; gen.c:7472:genPackBits *{*
                                           ;; ***	genPackBits  7473
                                           ;;	879: aopGet AOP_PCODE type PO_IMMEDIATE
                                           ;;	_TRISB_bits
                                           ; >>> gen.c:7498:genPackBits
                                           	.line	89; "aquarium.c"	TRIS_LED19 = 0; //Led19 output
0002d2   1106     bcf	0x6, 0x2             	BCF	_TRISB_bits,2
                                           ;; gen.c:2327:resultRemat *{*
                                           ;; gen.c:2327:resultRemat *{*
                                           ;; gen.c:7895:genPointerSet *{*
                                           ;; ***	genPointerSet  7896
                                           ;; gen.c:7723:genNearPointerSet *{*
                                           ;; ***	genNearPointerSet  7724
                                           ;;	689
                                           ;;	aopForRemat 474
                                           ;;	495: rname _TRISB_bits, val 0, const = 0
                                           ;; ***	genNearPointerSet  7741
                                           ;;	879: aopGet AOP_PCODE type PO_IMMEDIATE
                                           ;;	_TRISB_bits
                                           ;; 	line = 7743 result AOP_PCODE=_TRISB_bits, size=2, left -=-, size=0, right AOP_LIT=0x00, size=1
                                           ;; gen.c:7472:genPackBits *{*
                                           ;; ***	genPackBits  7473
                                           ;;	879: aopGet AOP_PCODE type PO_IMMEDIATE
                                           ;;	_TRISB_bits
                                           ; >>> gen.c:7498:genPackBits
                                           	.line	90; "aquarium.c"	TRIS_LED20 = 0; //Led20 output
0002d3   1186     bcf	0x6, 0x3             	BCF	_TRISB_bits,3
                                           ;; gen.c:2327:resultRemat *{*
                                           ;; gen.c:2327:resultRemat *{*
                                           ;; gen.c:7895:genPointerSet *{*
                                           ;; ***	genPointerSet  7896
                                           ;; gen.c:7723:genNearPointerSet *{*
                                           ;; ***	genNearPointerSet  7724
                                           ;;	689
                                           ;;	aopForRemat 474
                                           ;;	495: rname _TRISB_bits, val 0, const = 0
                                           ;; ***	genNearPointerSet  7741
                                           ;;	879: aopGet AOP_PCODE type PO_IMMEDIATE
                                           ;;	_TRISB_bits
                                           ;; 	line = 7743 result AOP_PCODE=_TRISB_bits, size=2, left -=-, size=0, right AOP_LIT=0x00, size=1
                                           ;; gen.c:7472:genPackBits *{*
                                           ;; ***	genPackBits  7473
                                           ;;	879: aopGet AOP_PCODE type PO_IMMEDIATE
                                           ;;	_TRISB_bits
                                           ; >>> gen.c:7498:genPackBits
                                           	.line	91; "aquarium.c"	TRIS_LED21 = 0; //Led21 output
0002d4   1206     bcf	0x6, 0x4             	BCF	_TRISB_bits,4
                                           ;; gen.c:2327:resultRemat *{*
                                           ;; gen.c:2327:resultRemat *{*
                                           ;; gen.c:7895:genPointerSet *{*
                                           ;; ***	genPointerSet  7896
                                           ;; gen.c:7723:genNearPointerSet *{*
                                           ;; ***	genNearPointerSet  7724
                                           ;;	689
                                           ;;	aopForRemat 474
                                           ;;	495: rname _TRISB_bits, val 0, const = 0
                                           ;; ***	genNearPointerSet  7741
                                           ;;	879: aopGet AOP_PCODE type PO_IMMEDIATE
                                           ;;	_TRISB_bits
                                           ;; 	line = 7743 result AOP_PCODE=_TRISB_bits, size=2, left -=-, size=0, right AOP_LIT=0x00, size=1
                                           ;; gen.c:7472:genPackBits *{*
                                           ;; ***	genPackBits  7473
                                           ;;	879: aopGet AOP_PCODE type PO_IMMEDIATE
                                           ;;	_TRISB_bits
                                           ; >>> gen.c:7498:genPackBits
                                           	.line	92; "aquarium.c"	TRIS_LED22 = 0; //Led22 output
0002d5   1286     bcf	0x6, 0x5             	BCF	_TRISB_bits,5
                                           ;; gen.c:2327:resultRemat *{*
                                           ;; gen.c:2686:genLabel *{*
                                           ;; ***	genLabel  2689
                                           ;; gen.c:2327:resultRemat *{*
                                           ;; gen.c:2524:genEndFunction *{*
                                           ;; ***	genEndFunction  2526
0002d6   0008     return                   	RETURN	
                                           ; exit point of _on_init
                                           ;; gen.c:8749:genpic14Code *{*
                                           
                                           ;***
                                           ;  pBlock Stats: dbName = C
                                           ;***
                                           ;entry:  _delayS	;Function start
                                           ; 2 exit points
                                           ;has an exit
                                           ;functions called:
                                           ;   _delayMs
                                           ;   _delayMs
                                           ;9 compiler assigned registers:
                                           ;   r0x102C
                                           ;   STK00
                                           ;   r0x102D
                                           ;   STK01
                                           ;   r0x102E
                                           ;   STK02
                                           ;   r0x102F
                                           ;   r0x1030
                                           ;   r0x1031
                                           ;; Starting pCode block
                                           ;; gen.c:2327:resultRemat *{*
                                           ;; gen.c:2686:genLabel *{*
                                           ;; ***	genLabel  2689
                                           ;; gen.c:2327:resultRemat *{*
                                           ;; gen.c:2372:genFunction *{*
                                           ;; ***	genFunction  2374 curr label offset=30previous max_key=7 
                                           _delayS	;Function start
                                           ; 2 exit points
                                           ;; gen.c:2327:resultRemat *{*
                                           ;; gen.c:8685:genReceive *{*
                                           ;; ***	genReceive  8686
                                           ;;	769 register type nRegs=4
                                           ;; gen.c:1882:assignResultValue *{*
                                           ;; ***	assignResultValue  1884
                                           ;; 	line = 1886 result -=-, size=0, left AOP_REG=r0x105A, size=4, right -=-, size=0
                                           ; >>> gen.c:1433:movwf
                                           ;;	1150 rIdx = r0x105D 
                                           	.line	52; "aquarium.c"	void delayS(unsigned long time)
0002d7   1283     bcf	0x3, 0x5             	BANKSEL	r0x102C
0002d8   1303     bcf	0x3, 0x6             
0002d9   00be     movwf	0x3e               	MOVWF	r0x102C
                                           ; >>> gen.c:1459:get_returnvalue
                                           ;; ***	popRegFromIdx,1066  , rIdx=0x2f
0002da   1283     bcf	0x3, 0x5             	BANKSEL	STK00
0002db   1303     bcf	0x3, 0x6             
0002dc   082f     movf	0x2f, w             	MOVF	STK00,W
                                           ; >>> gen.c:1433:movwf
                                           ;;	1150 rIdx = r0x105C 
0002dd   1283     bcf	0x3, 0x5             	BANKSEL	r0x102D
0002de   1303     bcf	0x3, 0x6             
0002df   00bd     movwf	0x3d               	MOVWF	r0x102D
                                           ; >>> gen.c:1459:get_returnvalue
                                           ;; ***	popRegFromIdx,1066  , rIdx=0x2e
0002e0   1283     bcf	0x3, 0x5             	BANKSEL	STK01
0002e1   1303     bcf	0x3, 0x6             
0002e2   082e     movf	0x2e, w             	MOVF	STK01,W
                                           ; >>> gen.c:1433:movwf
                                           ;;	1150 rIdx = r0x105B 
0002e3   1283     bcf	0x3, 0x5             	BANKSEL	r0x102E
0002e4   1303     bcf	0x3, 0x6             
0002e5   00bc     movwf	0x3c               	MOVWF	r0x102E
                                           ; >>> gen.c:1459:get_returnvalue
                                           ;; ***	popRegFromIdx,1066  , rIdx=0x2d
0002e6   1283     bcf	0x3, 0x5             	BANKSEL	STK02
0002e7   1303     bcf	0x3, 0x6             
0002e8   082d     movf	0x2d, w             	MOVF	STK02,W
                                           ; >>> gen.c:1433:movwf
                                           ;;	1150 rIdx = r0x105A 
0002e9   1283     bcf	0x3, 0x5             	BANKSEL	r0x102F
0002ea   1303     bcf	0x3, 0x6             
0002eb   00bb     movwf	0x3b               	MOVWF	r0x102F
                                           ;; gen.c:2327:resultRemat *{*
                                           ;; gen.c:8139:genAssign *{*
                                           ;; ***	genAssign  8140
                                           ;;	769 register type nRegs=2
                                           ;; 	line = 8149 result AOP_REG=r0x105E, size=2, left -=-, size=0, right AOP_LIT=0xe8, size=2
                                           ;; ***	genAssign  8241
                                           ; >>> gen.c:8246:genAssign
                                           	.line	55; "aquarium.c"	for(i=0; i<1000; i++)
0002ec   30e8     movlw	0xe8               	MOVLW	0xe8
                                           ; >>> gen.c:8248:genAssign
                                           ;;	1150 rIdx = r0x105E 
0002ed   00bf     movwf	0x3f               	MOVWF	r0x1030
                                           ;; ***	genAssign  8241
                                           ; >>> gen.c:8246:genAssign
0002ee   3003     movlw	0x3                	MOVLW	0x03
                                           ; >>> gen.c:8248:genAssign
                                           ;;	1150 rIdx = r0x105F 
0002ef   00c0     movwf	0x40               	MOVWF	r0x1031
                                           ;; gen.c:2327:resultRemat *{*
                                           ;; gen.c:2686:genLabel *{*
                                           ;; ***	genLabel  2689
                                           ;; gen.c:2327:resultRemat *{*
                                           ;; gen.c:2327:resultRemat *{*
                                           ;; gen.c:2096:genCall *{*
                                           ;; ***	genCall  2098
                                           ;; gen.c:1781:saveRegisters *{*
                                           ;; ***	saveRegisters  1783
                                           ;;	769 register type nRegs=4
                                           ;;	769 register type nRegs=4
                                           ;; 	2145 left AOP_REG
                                           ;; gen.c:1390:mov2w_op *{*
                                           ;; ***	mov2w  1422  offset=0
                                           ; >>> gen.c:1427:mov2w
                                           ;;	1150 rIdx = r0x105A 
                                           _00144_DS_
                                           	.line	56; "aquarium.c"	delayMs(time);
0002f0   1283     bcf	0x3, 0x5             	BANKSEL	r0x102F
0002f1   1303     bcf	0x3, 0x6             
0002f2   083b     movf	0x3b, w             	MOVF	r0x102F,W
                                           ;; 	2145 left AOP_REG
                                           ; >>> gen.c:2153:genCall
                                           ;; ***	popRegFromIdx,1066  , rIdx=0x2d
0002f3   1283     bcf	0x3, 0x5             	BANKSEL	STK02
0002f4   1303     bcf	0x3, 0x6             
0002f5   00ad     movwf	0x2d               	MOVWF	STK02
                                           ;; gen.c:1390:mov2w_op *{*
                                           ;; ***	mov2w  1422  offset=1
                                           ; >>> gen.c:1427:mov2w
                                           ;;	1150 rIdx = r0x105B 
0002f6   1283     bcf	0x3, 0x5             	BANKSEL	r0x102E
0002f7   1303     bcf	0x3, 0x6             
0002f8   083c     movf	0x3c, w             	MOVF	r0x102E,W
                                           ;; 	2145 left AOP_REG
                                           ; >>> gen.c:2153:genCall
                                           ;; ***	popRegFromIdx,1066  , rIdx=0x2e
0002f9   1283     bcf	0x3, 0x5             	BANKSEL	STK01
0002fa   1303     bcf	0x3, 0x6             
0002fb   00ae     movwf	0x2e               	MOVWF	STK01
                                           ;; gen.c:1390:mov2w_op *{*
                                           ;; ***	mov2w  1422  offset=2
                                           ; >>> gen.c:1427:mov2w
                                           ;;	1150 rIdx = r0x105C 
0002fc   1283     bcf	0x3, 0x5             	BANKSEL	r0x102D
0002fd   1303     bcf	0x3, 0x6             
0002fe   083d     movf	0x3d, w             	MOVF	r0x102D,W
                                           ;; 	2145 left AOP_REG
                                           ; >>> gen.c:2153:genCall
                                           ;; ***	popRegFromIdx,1066  , rIdx=0x2f
0002ff   1283     bcf	0x3, 0x5             	BANKSEL	STK00
000300   1303     bcf	0x3, 0x6             
000301   00af     movwf	0x2f               	MOVWF	STK00
                                           ;; gen.c:1390:mov2w_op *{*
                                           ;; ***	mov2w  1422  offset=3
                                           ; >>> gen.c:1427:mov2w
                                           ;;	1150 rIdx = r0x105D 
000302   1283     bcf	0x3, 0x5             	BANKSEL	r0x102C
000303   1303     bcf	0x3, 0x6             
000304   083e     movf	0x3e, w             	MOVF	r0x102C,W
                                           ; >>> gen.c:2184:genCall
000305   2311     call	0x311               	CALL	_delayMs
                                           ;; gen.c:1825:unsaveRegisters *{*
                                           ;; ***	unsaveRegisters  1827
                                           ;; gen.c:2327:resultRemat *{*
                                           ;; gen.c:4410:ifxForOp *{*
                                           ;; ***	ifxForOp  4412
                                           ;; gen.c:8641:genDjnz *{*
                                           ;; ***	genDjnz  8642
                                           ;; genarith.c:1008:genMinus *{*
                                           ;; ***	genMinus  1009
                                           ;;	769 register type nRegs=2
                                           ;;	654
                                           ;; 	result AOP_REG, left AOP_REG, right AOP_LIT
                                           ;; ***	pic14_getDataSize  1492
                                           ;; ***	pic14_getDataSize  1492
                                           ;; genarith.c:399:genAddLit *{*
                                           ;; ***	genAddLit  400
                                           ;; ***	pic14_getDataSize  1492
                                           ;; ***	pic14_getDataSize  1492
                                           ;; hi = ff	genAddLit  471
                                           ; >>> genarith.c:488:genAddLit
000306   30ff     movlw	0xff               	MOVLW	0xff
                                           ; >>> genarith.c:489:genAddLit
                                           ;;	1150 rIdx = r0x105E 
000307   1283     bcf	0x3, 0x5             	BANKSEL	r0x1030
000308   1303     bcf	0x3, 0x6             
000309   07bf     addwf	0x3f, f            	ADDWF	r0x1030,F
                                           ; >>> genarith.c:490:genAddLit
00030a   1c03     btfss	0x3, 0             	BTFSS	STATUS,0
                                           ; >>> genarith.c:491:genAddLit
                                           ;;	1150 rIdx = r0x105F 
00030b   03c0     decf	0x40, f             	DECF	r0x1031,F
                                           ;; ***	pic14_getDataSize  1492
                                           ;; ***	pic14_getDataSize  1492
                                           ;; ***	pic14_getDataSize  1492
                                           ;; ***	addSign  973
                                           ;; genarith.c:974:addSign *{*
                                           ;; gen.c:2327:resultRemat *{*
                                           ;; gen.c:7965:genIfx *{*
                                           ;; ***	genIfx  7966
                                           ;;	769 register type nRegs=2
                                           ;; ***	pic14_toBoolean  1566
                                           ; >>> gen.c:1575:pic14_toBoolean
                                           ;;	1150 rIdx = r0x105E 
                                           	.line	55; "aquarium.c"	for(i=0; i<1000; i++)
00030c   083f     movf	0x3f, w             	MOVF	r0x1030,W
                                           ; >>> gen.c:1580:pic14_toBoolean
                                           ;;	1150 rIdx = r0x105F 
00030d   0440     iorwf	0x40, w            	IORWF	r0x1031,W
                                           ; >>> gen.c:8011:genIfx
00030e   1d03     btfss	0x3, 0x2           	BTFSS	STATUS,2
                                           ; >>> gen.c:8012:genIfx
                                           ;; ***	popGetLabel  key=3, label offset 41
00030f   2af0     goto	0x2f0               	GOTO	_00144_DS_
                                           ;; gen.c:2327:resultRemat *{*
                                           ;; gen.c:2686:genLabel *{*
                                           ;; ***	genLabel  2689
                                           ;; gen.c:2327:resultRemat *{*
                                           ;; gen.c:2524:genEndFunction *{*
                                           ;; ***	genEndFunction  2526
000310   0008     return                   	RETURN	
                                           ; exit point of _delayS
                                           ;; gen.c:8749:genpic14Code *{*
                                           
                                           ;***
                                           ;  pBlock Stats: dbName = C
                                           ;***
                                           ;entry:  _delayMs	;Function start
                                           ; 2 exit points
                                           ;has an exit
                                           ;11 compiler assigned registers:
                                           ;   r0x1032
                                           ;   STK00
                                           ;   r0x1033
                                           ;   STK01
                                           ;   r0x1034
                                           ;   STK02
                                           ;   r0x103E
                                           ;   r0x1036
                                           ;   r0x1037
                                           ;   r0x1038
                                           ;   r0x1039
                                           ;; Starting pCode block
                                           ;; gen.c:2327:resultRemat *{*
                                           ;; gen.c:2686:genLabel *{*
                                           ;; ***	genLabel  2689
                                           ;; gen.c:2327:resultRemat *{*
                                           ;; gen.c:2372:genFunction *{*
                                           ;; ***	genFunction  2374 curr label offset=26previous max_key=0 
                                           _delayMs	;Function start
                                           ; 2 exit points
                                           ;; gen.c:2327:resultRemat *{*
                                           ;; gen.c:8685:genReceive *{*
                                           ;; ***	genReceive  8686
                                           ;;	769 register type nRegs=4
                                           ;; gen.c:1882:assignResultValue *{*
                                           ;; ***	assignResultValue  1884
                                           ;; 	line = 1886 result -=-, size=0, left AOP_REG=r0x1050, size=4, right -=-, size=0
                                           ; >>> gen.c:1433:movwf
                                           ;;	1150 rIdx = r0x1055 
                                           	.line	46; "aquarium.c"	void delayMs(unsigned long time)
000311   1283     bcf	0x3, 0x5             	BANKSEL	r0x1032
000312   1303     bcf	0x3, 0x6             
000313   00b6     movwf	0x36               	MOVWF	r0x1032
                                           ; >>> gen.c:1459:get_returnvalue
                                           ;; ***	popRegFromIdx,1066  , rIdx=0x2f
000314   1283     bcf	0x3, 0x5             	BANKSEL	STK00
000315   1303     bcf	0x3, 0x6             
000316   082f     movf	0x2f, w             	MOVF	STK00,W
                                           ; >>> gen.c:1433:movwf
                                           ;;	1150 rIdx = r0x1054 
000317   1283     bcf	0x3, 0x5             	BANKSEL	r0x1033
000318   1303     bcf	0x3, 0x6             
000319   00b5     movwf	0x35               	MOVWF	r0x1033
                                           ; >>> gen.c:1459:get_returnvalue
                                           ;; ***	popRegFromIdx,1066  , rIdx=0x2e
00031a   1283     bcf	0x3, 0x5             	BANKSEL	STK01
00031b   1303     bcf	0x3, 0x6             
00031c   082e     movf	0x2e, w             	MOVF	STK01,W
                                           ; >>> gen.c:1433:movwf
                                           ;;	1150 rIdx = r0x1053 
00031d   1283     bcf	0x3, 0x5             	BANKSEL	r0x1034
00031e   1303     bcf	0x3, 0x6             
00031f   00b4     movwf	0x34               	MOVWF	r0x1034
                                           ; >>> gen.c:1459:get_returnvalue
                                           ;; ***	popRegFromIdx,1066  , rIdx=0x2d
000320   1283     bcf	0x3, 0x5             	BANKSEL	STK02
000321   1303     bcf	0x3, 0x6             
000322   082d     movf	0x2d, w             	MOVF	STK02,W
                                           ; >>> gen.c:1433:movwf
                                           ;;	1150 rIdx = r0x1050 
000323   1283     bcf	0x3, 0x5             	BANKSEL	r0x103E
000324   1303     bcf	0x3, 0x6             
000325   00b3     movwf	0x33               	MOVWF	r0x103E
                                           ;; gen.c:2327:resultRemat *{*
                                           ;; gen.c:8139:genAssign *{*
                                           ;; ***	genAssign  8140
                                           ;; ***	aopForSym 393
                                           ;;	404 sym->rname = _tick, size = 4
                                           ;; ***	aopForSym 393
                                           ;;	404 sym->rname = _lasttick, size = 4
                                           ;; 	line = 8149 result AOP_DIR=_lasttick, size=4, left -=-, size=0, right AOP_DIR=_tick, size=4
                                           ;; ***	genAssign  8241
                                           ;; gen.c:1390:mov2w_op *{*
                                           ;; ***	mov2w  1422  offset=0
                                           ; >>> gen.c:1427:mov2w
                                           ;;	1036
                                           ;;	1052  _tick   offset=0
                                           	.line	48; "aquarium.c"	lasttick=tick;
000326   1283     bcf	0x3, 0x5             	BANKSEL	_tick
000327   1303     bcf	0x3, 0x6             
000328   086f     movf	0x6f, w             	MOVF	_tick,W
                                           ; >>> gen.c:8260:genAssign
                                           ;;	1036
                                           ;;	1052  _lasttick   offset=0
000329   1283     bcf	0x3, 0x5             	BANKSEL	_lasttick
00032a   1303     bcf	0x3, 0x6             
00032b   00f3     movwf	0x73               	MOVWF	_lasttick
                                           ;; ***	genAssign  8241
                                           ;; gen.c:1390:mov2w_op *{*
                                           ;; ***	mov2w  1422  offset=1
                                           ; >>> gen.c:1427:mov2w
                                           ;;	1036
                                           ;;	1052  _tick   offset=1
00032c   1283     bcf	0x3, 0x5             	BANKSEL	_tick
00032d   1303     bcf	0x3, 0x6             
00032e   0870     movf	0x70, w             	MOVF	(_tick + 1),W
                                           ; >>> gen.c:8260:genAssign
                                           ;;	1036
                                           ;;	1052  _lasttick   offset=1
00032f   1283     bcf	0x3, 0x5             	BANKSEL	_lasttick
000330   1303     bcf	0x3, 0x6             
000331   00f4     movwf	0x74               	MOVWF	(_lasttick + 1)
                                           ;; ***	genAssign  8241
                                           ;; gen.c:1390:mov2w_op *{*
                                           ;; ***	mov2w  1422  offset=2
                                           ; >>> gen.c:1427:mov2w
                                           ;;	1036
                                           ;;	1052  _tick   offset=2
000332   1283     bcf	0x3, 0x5             	BANKSEL	_tick
000333   1303     bcf	0x3, 0x6             
000334   0871     movf	0x71, w             	MOVF	(_tick + 2),W
                                           ; >>> gen.c:8260:genAssign
                                           ;;	1036
                                           ;;	1052  _lasttick   offset=2
000335   1283     bcf	0x3, 0x5             	BANKSEL	_lasttick
000336   1303     bcf	0x3, 0x6             
000337   00f5     movwf	0x75               	MOVWF	(_lasttick + 2)
                                           ;; ***	genAssign  8241
                                           ;; gen.c:1390:mov2w_op *{*
                                           ;; ***	mov2w  1422  offset=3
                                           ; >>> gen.c:1427:mov2w
                                           ;;	1036
                                           ;;	1052  _tick   offset=3
000338   1283     bcf	0x3, 0x5             	BANKSEL	_tick
000339   1303     bcf	0x3, 0x6             
00033a   0872     movf	0x72, w             	MOVF	(_tick + 3),W
                                           ; >>> gen.c:8260:genAssign
                                           ;;	1036
                                           ;;	1052  _lasttick   offset=3
00033b   1283     bcf	0x3, 0x5             	BANKSEL	_lasttick
00033c   1303     bcf	0x3, 0x6             
00033d   00f6     movwf	0x76               	MOVWF	(_lasttick + 3)
                                           ;; gen.c:2327:resultRemat *{*
                                           ;; gen.c:2686:genLabel *{*
                                           ;; ***	genLabel  2689
                                           ;; gen.c:2327:resultRemat *{*
                                           ;; gen.c:4410:ifxForOp *{*
                                           ;; ***	ifxForOp  4412
                                           ;; NULL :(	4432
                                           ;; gen.c:8641:genDjnz *{*
                                           ;; ***	genDjnz  8642
                                           ;; genarith.c:1008:genMinus *{*
                                           ;; ***	genMinus  1009
                                           ;; ***	aopForSym 393
                                           ;;	404 sym->rname = _tick, size = 4
                                           ;; ***	aopForSym 393
                                           ;;	404 sym->rname = _lasttick, size = 4
                                           ;;	769 register type nRegs=4
                                           ;; 	result AOP_REG, left AOP_DIR, right AOP_DIR
                                           ;; ***	pic14_getDataSize  1492
                                           ;; ***	pic14_getDataSize  1492
                                           ;; ***	pic14_getDataSize  1492
                                           ;; ***	mov2w  1422  offset=0
                                           ; >>> gen.c:1427:mov2w
                                           ;;	1036
                                           ;;	1052  _lasttick   offset=0
                                           _00131_DS_
                                           	.line	49; "aquarium.c"	while((tick-lasttick)<time)continue;
00033e   1283     bcf	0x3, 0x5             	BANKSEL	_lasttick
00033f   1303     bcf	0x3, 0x6             
000340   0873     movf	0x73, w             	MOVF	_lasttick,W
                                           ; >>> genarith.c:1165:genMinus
                                           ;;	1036
                                           ;;	1052  _tick   offset=0
000341   1283     bcf	0x3, 0x5             	BANKSEL	_tick
000342   1303     bcf	0x3, 0x6             
000343   026f     subwf	0x6f, w            	SUBWF	_tick,W
                                           ; >>> genarith.c:1166:genMinus
                                           ;;	1150 rIdx = r0x1056 
000344   1283     bcf	0x3, 0x5             	BANKSEL	r0x1036
000345   1303     bcf	0x3, 0x6             
000346   00b7     movwf	0x37               	MOVWF	r0x1036
                                           ;; ***	mov2w  1422  offset=1
                                           ; >>> gen.c:1427:mov2w
                                           ;;	1036
                                           ;;	1052  _tick   offset=1
000347   1283     bcf	0x3, 0x5             	BANKSEL	_tick
000348   1303     bcf	0x3, 0x6             
000349   0870     movf	0x70, w             	MOVF	(_tick + 1),W
                                           ; >>> genarith.c:1289:genMinus
                                           ;;	1150 rIdx = r0x1057 
00034a   1283     bcf	0x3, 0x5             	BANKSEL	r0x1037
00034b   1303     bcf	0x3, 0x6             
00034c   00b8     movwf	0x38               	MOVWF	r0x1037
                                           ;; ***	mov2w  1422  offset=1
                                           ; >>> gen.c:1427:mov2w
                                           ;;	1036
                                           ;;	1052  _lasttick   offset=1
00034d   1283     bcf	0x3, 0x5             	BANKSEL	_lasttick
00034e   1303     bcf	0x3, 0x6             
00034f   0874     movf	0x74, w             	MOVF	(_lasttick + 1),W
                                           ; >>> genarith.c:1291:genMinus
000350   1c03     btfss	0x3, 0             	BTFSS	STATUS,0
                                           ; >>> genarith.c:1292:genMinus
                                           ;;	1036
                                           ;;	1052  _lasttick   offset=1
000351   0a74     incf	0x74, w             	INCF	(_lasttick + 1),W
000352   1903     btfsc	0x3, 0x2           	BTFSC	STATUS,2
000353   2b57     goto	0x357               	GOTO	_00047_DS_
                                           ; >>> genarith.c:1293:genMinus
                                           ;;	1150 rIdx = r0x1057 
000354   1283     bcf	0x3, 0x5             	BANKSEL	r0x1037
000355   1303     bcf	0x3, 0x6             
000356   02b8     subwf	0x38, f            	SUBWF	r0x1037,F
                                           ;; ***	mov2w  1422  offset=2
                                           ; >>> gen.c:1427:mov2w
                                           ;;	1036
                                           ;;	1052  _tick   offset=2
                                           _00047_DS_
000357   1283     bcf	0x3, 0x5             	BANKSEL	_tick
000358   1303     bcf	0x3, 0x6             
000359   0871     movf	0x71, w             	MOVF	(_tick + 2),W
                                           ; >>> genarith.c:1289:genMinus
                                           ;;	1150 rIdx = r0x1058 
00035a   1283     bcf	0x3, 0x5             	BANKSEL	r0x1038
00035b   1303     bcf	0x3, 0x6             
00035c   00b9     movwf	0x39               	MOVWF	r0x1038
                                           ;; ***	mov2w  1422  offset=2
                                           ; >>> gen.c:1427:mov2w
                                           ;;	1036
                                           ;;	1052  _lasttick   offset=2
00035d   1283     bcf	0x3, 0x5             	BANKSEL	_lasttick
00035e   1303     bcf	0x3, 0x6             
00035f   0875     movf	0x75, w             	MOVF	(_lasttick + 2),W
                                           ; >>> genarith.c:1291:genMinus
000360   1c03     btfss	0x3, 0             	BTFSS	STATUS,0
                                           ; >>> genarith.c:1292:genMinus
                                           ;;	1036
                                           ;;	1052  _lasttick   offset=2
000361   0a75     incf	0x75, w             	INCF	(_lasttick + 2),W
000362   1903     btfsc	0x3, 0x2           	BTFSC	STATUS,2
000363   2b67     goto	0x367               	GOTO	_00048_DS_
                                           ; >>> genarith.c:1293:genMinus
                                           ;;	1150 rIdx = r0x1058 
000364   1283     bcf	0x3, 0x5             	BANKSEL	r0x1038
000365   1303     bcf	0x3, 0x6             
000366   02b9     subwf	0x39, f            	SUBWF	r0x1038,F
                                           ;; ***	mov2w  1422  offset=3
                                           ; >>> gen.c:1427:mov2w
                                           ;;	1036
                                           ;;	1052  _lasttick   offset=3
                                           _00048_DS_
000367   1283     bcf	0x3, 0x5             	BANKSEL	_lasttick
000368   1303     bcf	0x3, 0x6             
000369   0876     movf	0x76, w             	MOVF	(_lasttick + 3),W
                                           ; >>> genarith.c:1261:genMinus
00036a   1c03     btfss	0x3, 0             	BTFSS	STATUS,0
                                           ; >>> genarith.c:1262:genMinus
                                           ;;	1036
                                           ;;	1052  _lasttick   offset=3
00036b   0a76     incf	0x76, w             	INCF	(_lasttick + 3),W
                                           ; >>> genarith.c:1265:genMinus
                                           ;;	1036
                                           ;;	1052  _tick   offset=3
00036c   1283     bcf	0x3, 0x5             	BANKSEL	_tick
00036d   1303     bcf	0x3, 0x6             
00036e   0272     subwf	0x72, w            	SUBWF	(_tick + 3),W
                                           ; >>> genarith.c:1266:genMinus
                                           ;;	1150 rIdx = r0x1059 
00036f   1283     bcf	0x3, 0x5             	BANKSEL	r0x1039
000370   1303     bcf	0x3, 0x6             
000371   00ba     movwf	0x3a               	MOVWF	r0x1039
                                           ;; gen.c:2327:resultRemat *{*
                                           ;; gen.c:4410:ifxForOp *{*
                                           ;; ***	ifxForOp  4412
                                           ;; gen.c:4263:genCmpLt *{*
                                           ;; ***	genCmpLt  4264
                                           ;;	769 register type nRegs=4
                                           ;;	769 register type nRegs=4
                                           ;; gen.c:3365:genCmp *{*
                                           ; >>> gen.c:3340:pic14_mov2w_regOrLit
                                           ;;	1150 rIdx = r0x1055 
000372   0836     movf	0x36, w             	MOVF	r0x1032,W
                                           ; >>> gen.c:3473:genCmp
                                           ;;	1150 rIdx = r0x1059 
000373   023a     subwf	0x3a, w            	SUBWF	r0x1039,W
                                           ; >>> gen.c:3509:genCmp
000374   1d03     btfss	0x3, 0x2           	BTFSS	STATUS,2
                                           ; >>> gen.c:3510:genCmp
                                           ;; ***	popGetLabel  key=7, label offset 30
000375   2b80     goto	0x380               	GOTO	_00137_DS_
                                           ; >>> gen.c:3340:pic14_mov2w_regOrLit
                                           ;;	1150 rIdx = r0x1054 
000376   0835     movf	0x35, w             	MOVF	r0x1033,W
                                           ; >>> gen.c:3512:genCmp
                                           ;;	1150 rIdx = r0x1058 
000377   0239     subwf	0x39, w            	SUBWF	r0x1038,W
                                           ; >>> gen.c:3509:genCmp
000378   1d03     btfss	0x3, 0x2           	BTFSS	STATUS,2
                                           ; >>> gen.c:3510:genCmp
                                           ;; ***	popGetLabel  key=7, label offset 30
000379   2b80     goto	0x380               	GOTO	_00137_DS_
                                           ; >>> gen.c:3340:pic14_mov2w_regOrLit
                                           ;;	1150 rIdx = r0x1053 
00037a   0834     movf	0x34, w             	MOVF	r0x1034,W
                                           ; >>> gen.c:3512:genCmp
                                           ;;	1150 rIdx = r0x1057 
00037b   0238     subwf	0x38, w            	SUBWF	r0x1037,W
                                           ; >>> gen.c:3509:genCmp
00037c   1d03     btfss	0x3, 0x2           	BTFSS	STATUS,2
                                           ; >>> gen.c:3510:genCmp
                                           ;; ***	popGetLabel  key=7, label offset 30
00037d   2b80     goto	0x380               	GOTO	_00137_DS_
                                           ; >>> gen.c:3340:pic14_mov2w_regOrLit
                                           ;;	1150 rIdx = r0x1050 
00037e   0833     movf	0x33, w             	MOVF	r0x103E,W
                                           ; >>> gen.c:3512:genCmp
                                           ;;	1150 rIdx = r0x1056 
00037f   0237     subwf	0x37, w            	SUBWF	r0x1036,W
                                           ;; gen.c:3215:genSkipc *{*
                                           ; >>> gen.c:3222:genSkipc
                                           _00137_DS_
000380   1c03     btfss	0x3, 0             	BTFSS	STATUS,0
                                           ; >>> gen.c:3224:genSkipc
                                           ;; ***	popGetLabel  key=1, label offset 30
000381   2b3e     goto	0x33e               	GOTO	_00131_DS_
                                           ;genSkipc:3225: created from rifx:0xbfff5a80
                                           ;; gen.c:2327:resultRemat *{*
                                           ;; gen.c:2327:resultRemat *{*
                                           ;; gen.c:2686:genLabel *{*
                                           ;; ***	genLabel  2689
                                           ;; gen.c:2327:resultRemat *{*
                                           ;; gen.c:2524:genEndFunction *{*
                                           ;; ***	genEndFunction  2526
000382   0008     return                   	RETURN	
                                           ; exit point of _delayMs
                                           ;; gen.c:8749:genpic14Code *{*
                                           
                                           ;***
                                           ;  pBlock Stats: dbName = C
                                           ;***
                                           ;entry:  _timer1_init	;Function start
                                           ; 2 exit points
                                           ;has an exit
                                           ;; Starting pCode block
                                           ;; gen.c:2327:resultRemat *{*
                                           ;; gen.c:2686:genLabel *{*
                                           ;; ***	genLabel  2689
                                           ;; gen.c:2327:resultRemat *{*
                                           ;; gen.c:2372:genFunction *{*
                                           ;; ***	genFunction  2374 curr label offset=4previous max_key=18 
                                           _timer1_init	;Function start
                                           ; 2 exit points
                                           ;; gen.c:2327:resultRemat *{*
                                           ;; gen.c:8139:genAssign *{*
                                           ;; ***	genAssign  8140
                                           ;; ***	aopForSym 393
                                           ;;	404 sym->rname = _T1CON, size = 1
                                           ;; 	line = 8149 result AOP_DIR=_T1CON, size=1, left -=-, size=0, right AOP_LIT=0x01, size=1
                                           ;; ***	genAssign  8241
                                           ; >>> gen.c:8246:genAssign
                                           	.line	40; "aquarium.c"	T1CON=0x01;
000383   3001     movlw	0x1                	MOVLW	0x01
                                           ; >>> gen.c:8248:genAssign
                                           ;;	1036
                                           ;;	1052  _T1CON   offset=0
000384   1283     bcf	0x3, 0x5             	BANKSEL	_T1CON
000385   1303     bcf	0x3, 0x6             
000386   0090     movwf	0x10               	MOVWF	_T1CON
                                           ;; gen.c:2327:resultRemat *{*
                                           ;; gen.c:4410:ifxForOp *{*
                                           ;; ***	ifxForOp  4412
                                           ;; gen.c:4887:genOr *{*
                                           ;; ***	genOr  4888
                                           ;; ***	aopForSym 393
                                           ;;	404 sym->rname = _INTCON, size = 1
                                           ;;	654
                                           ;; 	line = 4894 result AOP_DIR=_INTCON, size=1, left AOP_DIR=_INTCON, size=1, right AOP_LIT=0xc0, size=1
                                           ;; 	line = 4919 result AOP_DIR=_INTCON, size=1, left AOP_DIR=_INTCON, size=1, right AOP_LIT=0xc0, size=1
                                           ; >>> gen.c:5054:genOr
                                           	.line	41; "aquarium.c"	INTCON|=0xC0; //enable global interrupts
000387   30c0     movlw	0xc0               	MOVLW	0xc0
                                           ; >>> gen.c:5056:genOr
                                           ;;	1036
                                           ;;	1050  _INTCON   offset=0 - had to alloc by reg name
000388   048b     iorwf	0xb, f             	IORWF	_INTCON,F
                                           ;; gen.c:2327:resultRemat *{*
                                           ;; gen.c:4410:ifxForOp *{*
                                           ;; ***	ifxForOp  4412
                                           ;; gen.c:4887:genOr *{*
                                           ;; ***	genOr  4888
                                           ;; ***	aopForSym 393
                                           ;;	404 sym->rname = _PIE1, size = 1
                                           ;;	654
                                           ;; 	line = 4894 result AOP_DIR=_PIE1, size=1, left AOP_DIR=_PIE1, size=1, right AOP_LIT=0x01, size=1
                                           ;; 	line = 4919 result AOP_DIR=_PIE1, size=1, left AOP_DIR=_PIE1, size=1, right AOP_LIT=0x01, size=1
                                           ; >>> gen.c:5051:genOr
                                           	.line	42; "aquarium.c"	PIE1|=0x01;  //enable timer1 interrupt
000389   1683     bsf	0x3, 0x5             	BANKSEL	_PIE1
00038a   1303     bcf	0x3, 0x6             
00038b   140c     bsf	0xc, 0               	BSF	_PIE1,0
                                           ;; gen.c:2327:resultRemat *{*
                                           ;; gen.c:4410:ifxForOp *{*
                                           ;; ***	ifxForOp  4412
                                           ;; gen.c:4625:genAnd *{*
                                           ;; ***	genAnd  4626
                                           ;; ***	aopForSym 393
                                           ;;	404 sym->rname = _PIR1, size = 1
                                           ;;	654
                                           ;; 	line = 4660 result AOP_DIR=_PIR1, size=1, left AOP_DIR=_PIR1, size=1, right AOP_LIT=0xfe, size=1
                                           ; >>> gen.c:4804:genAnd
                                           	.line	43; "aquarium.c"	PIR1&=0xFE;  //clear timer1 interrupt flag
00038c   1283     bcf	0x3, 0x5             	BANKSEL	_PIR1
00038d   1303     bcf	0x3, 0x6             
00038e   100c     bcf	0xc, 0               	BCF	_PIR1,0
                                           ;; gen.c:2327:resultRemat *{*
                                           ;; gen.c:2686:genLabel *{*
                                           ;; ***	genLabel  2689
                                           ;; gen.c:2327:resultRemat *{*
                                           ;; gen.c:2524:genEndFunction *{*
                                           ;; ***	genEndFunction  2526
00038f   0008     return                   	RETURN	
                                           ; exit point of _timer1_init
                                           ;; gen.c:8749:genpic14Code *{*
                                           
                                           
                                           ;	code size estimation:
                                           ;	  572+  170 =   742 instructions ( 1824 byte)
                                           
                                           	end
                                                   LIST
                                           ; P16F877.INC  Standard Header File, Version 1.00    Microchip Technology, Inc.
                                                   NOLIST
                                                   LIST
                                           ; P16F877.INC  Standard Header File, Version 1.00    Microchip Technology, Inc.
                                                   NOLIST
                                                   LIST
                                           ; P16F877.INC  Standard Header File, Version 1.00    Microchip Technology, Inc.
                                                   NOLIST
